(lp0
S'http://www.stylemepretty.com/illinois-weddings/chicago/2014/07/28/romantic-ballroom-wedding/'
p1
aS'http://www.stylemepretty.com/little-black-book-blog/2014/06/26/elegant-santa-barbara-wedding-at-bacara-resort/'
p2
aS'http://www.stylemepretty.com/wisconsin-weddings/milwaukee/2014/08/26/elegant-rustic-summer-warehouse-wedding-at-historic-pritzlaff/'
p3
aS'http://www.stylemepretty.com/2014/07/18/backyard-garden-wedding-in-northern-california/'
p4
aS'http://www.stylemepretty.com/2014/11/05/elegant-la-wedding-at-carondelet-house/'
p5
aS'http://www.stylemepretty.com/little-black-book-blog/2014/10/06/romantic-silver-creek-valley-country-club-wedding/'
p6
aS'http://www.stylemepretty.com/little-black-book-blog/2014/11/24/elegant-puerto-vallarta-beach-wedding/'
p7
aS'http://www.stylemepretty.com/illinois-weddings/chicago/2013/09/03/chicago-rookery-wedding-from-dawn-e-roscoe-photography/'
p8
aS'http://www.stylemepretty.com/california-weddings/sonoma/2014/05/30/music-inspired-sonoma-wedding/'
p9
aS'http://www.stylemepretty.com/little-black-book-blog/2014/06/05/argentinian-elopement/'
p10
aS'http://www.stylemepretty.com/2014/08/27/tented-beauty-in-paso-robles/'
p11
aS'http://www.stylemepretty.com/little-black-book-blog/2014/10/14/sailboat-engagement-session-in-san-diego/'
p12
aS'http://www.stylemepretty.com/2013/07/30/st-louis-wedding-from-megan-thiele-studios/'
p13
aS'http://www.stylemepretty.com/california-weddings/2014/09/11/romance-in-the-redwoods/'
p14
aS'http://www.stylemepretty.com/little-black-book-blog/2014/07/09/romantic-montecito-country-club-wedding/'
p15
aS'http://www.stylemepretty.com/california-weddings/los-angeles/2014/10/27/urban-chic-la-wedding/'
p16
aS'http://www.stylemepretty.com/destination-weddings/2014/03/26/a-colorful-celebration-in-latvia/'
p17
aS'http://www.stylemepretty.com/2014/05/01/romantic-candlelit-evening-wedding/'
p18
aS'http://www.stylemepretty.com/illinois-weddings/wheaton/2014/05/21/bright-summery-wedding-in-wheaton/'
p19
aS'http://www.stylemepretty.com/illinois-weddings/hoffman-estates/2013/09/04/illinois-wedding-at-the-stonegate-from-evan-hunt-photo/'
p20
aS'http://www.stylemepretty.com/illinois-weddings/chicago/2014/04/28/classic-ballroom-wedding-at-the-langham-chicago/'
p21
aS'http://www.stylemepretty.com/california-weddings/irvine/2014/11/05/classic-southern-california-wedding-at-strawberry-farms/'
p22
aS'http://www.stylemepretty.com/wisconsin-weddings/2014/05/27/wisconsin-nature-reserve-wedding/'
p23
aS'http://www.stylemepretty.com/illinois-weddings/chicago/2013/10/09/romantic-chicago-wedding-at-cafe-brauer-from-heather-parker-photography-i-do-films/'
p24
aS'http://www.stylemepretty.com/california-weddings/culver-city/2014/05/23/colorful-california-wedding-inspired-by-uno-cards/'
p25
aS'http://www.stylemepretty.com/2014/09/03/modern-california-wine-country-wedding/'
p26
aS'http://www.stylemepretty.com/illinois-weddings/2014/03/18/chicago-botanic-garden-wedding/'
p27
aS'http://www.stylemepretty.com/little-black-book-blog/2014/09/15/romantic-santa-barbara-wedding/'
p28
aS'http://www.stylemepretty.com/illinois-weddings/bloomington-illinois/2013/12/13/bloomington-country-club-wedding/'
p29
aS'http://www.stylemepretty.com/little-black-book-blog/2014/11/14/classic-langham-pasadena-wedding/'
p30
aS'http://www.stylemepretty.com/illinois-weddings/2013/07/22/chicago-wedding-at-room-1520-from-studio-starling/'
p31
aS'http://www.stylemepretty.com/2014/03/17/colorful-vineyard-wedding-in-lodi-california/'
p32
aS'http://www.stylemepretty.com/destination-weddings/hawaii-weddings/2014/01/28/modern-vintage-oahu-wedding-at-lanikuhonua/'
p33
aS'http://www.stylemepretty.com/illinois-weddings/chicago/2013/11/11/modern-chicago-wedding-from-erica-rose-photography/'
p34
aS'http://www.stylemepretty.com/destination-weddings/2014/10/24/tuscan-wedding-inspiration-at-coselli-collection/'
p35
aS'http://www.stylemepretty.com/little-black-book-blog/2014/10/30/organic-elegance-in-greece-at-kinsterna-hotel-spa/'
p36
aS'http://www.stylemepretty.com/2014/10/14/soft-romantic-summer-winery-wedding/'
p37
aS'http://www.stylemepretty.com/destination-weddings/2014/10/28/boho-chic-netherlands-wedding-at-het-reirinck/'
p38
aS'http://www.stylemepretty.com/illinois-weddings/chicago/2014/03/25/the-modern-wing-at-the-art-institute-of-chicago-wedding/'
p39
aS'http://www.stylemepretty.com/michigan-weddings/northern-michigan/2014/03/13/winter-farm-wedding-ideas/'
p40
aS'http://www.stylemepretty.com/2014/07/29/chic-summer-wedding-in-london/'
p41
aS'http://www.stylemepretty.com/2014/10/02/whimsical-brunch-wedding-in-downtown-los-angeles/'
p42
aS'http://www.stylemepretty.com/illinois-weddings/chicago/2014/07/22/modern-ballroom-wedding-at-the-waldorf-astoria-chicago/'
p43
aS'http://www.stylemepretty.com/little-black-book-blog/2014/01/16/eiffel-tower-wedding-highlight-film/'
p44
aS'http://www.stylemepretty.com/2014/11/15/casual-st-helena-farm-to-table-wedding/'
p45
aS'http://www.stylemepretty.com/little-black-book-blog/2014/03/21/whimsical-english-garden-wedding/'
p46
aS'http://www.stylemepretty.com/2014/09/10/vibrant-open-air-wedding-santa-barbara/'
p47
aS'http://www.stylemepretty.com/illinois-weddings/chicago/2013/09/27/chicago-wedding-at-galleria-marchetti-from-olivia-leigh-photographie/'
p48
aS'http://www.stylemepretty.com/little-black-book-blog/2014/11/06/elegant-bahamas-wedding/'
p49
aS'http://www.stylemepretty.com/illinois-weddings/wheaton/2013/08/20/vintage-wedding-in-wheaton-illinois-from-chrystl-roberge-photography/'
p50
aS'http://www.stylemepretty.com/destination-weddings/2014/01/21/rustic-park-city-wedding-at-canyons-resort/'
p51
aS'http://www.stylemepretty.com/destination-weddings/2014/01/17/florence-italy-wedding-at-villa-montefiano-balcony/'
p52
aS'http://www.stylemepretty.com/little-black-book-blog/2014/08/06/romantic-garden-wedding-at-la-jolla-darlington-house/'
p53
aS'http://www.stylemepretty.com/little-black-book-blog/2014/11/17/intimate-kauai-wedding/'
p54
aS'http://www.stylemepretty.com/2014/08/14/english-country-garden-wedding/'
p55
aS'http://www.stylemepretty.com/california-weddings/santa-rosa/2014/06/18/rustic-ranch-wedding-2/'
p56
aS'http://www.stylemepretty.com/ohio-weddings/columbus/2014/05/12/rustic-winery-wedding/'
p57
aS'http://www.stylemepretty.com/2014/11/06/summer-winery-wedding-with-pops-of-pink/'
p58
aS'http://www.stylemepretty.com/california-weddings/2014/11/21/family-infused-old-ranch-country-club-wedding-on-a-budget/'
p59
aS'http://www.stylemepretty.com/california-weddings/montecito/2014/06/11/glamorous-wedding-at-historic-estate/'
p60
aS'http://www.stylemepretty.com/2013/12/02/st-louis-garden-wedding-from-clary-photo/'
p61
aS'http://www.stylemepretty.com/michigan-weddings/grand-rapids/2014/08/04/classic-summer-wedding/'
p62
aS'http://www.stylemepretty.com/little-black-book-blog/2014/10/21/glamorous-pink-khorassan-ballroom-wedding/'
p63
aS'http://www.stylemepretty.com/oklahoma-weddings/2014/07/11/afternoon-tea-wedding-in-oklahoma/'
p64
aS'http://www.stylemepretty.com/little-black-book-blog/2014/11/11/al-fresco-shady-canyon-golf-club-wedding/'
p65
aS'http://www.stylemepretty.com/illinois-weddings/rockton/2013/10/07/orchard-ridge-farms-wedding-from-studio-starling-michelle-durpetti-events/'
p66
aS'http://www.stylemepretty.com/2014/03/17/irish-inspired-wedding-at-tir-na-nog-estate/'
p67
aS'http://www.stylemepretty.com/illinois-weddings/chicago/2013/09/30/peninsula-hotel-chicago-wedding-from-emilia-jane-photography/'
p68
aS'http://www.stylemepretty.com/2014/06/12/candlelit-indoor-chicago-wedding/'
p69
aS'http://www.stylemepretty.com/nebraska-weddings/2014/11/03/elegant-sculpture-garden-wedding/'
p70
aS'http://www.stylemepretty.com/2013/08/29/wisconsin-wedding-from-woodnote-photography-2/'
p71
aS'http://www.stylemepretty.com/california-weddings/san-luis-obispo/2014/06/11/romantic-country-club-wedding/'
p72
aS'http://www.stylemepretty.com/little-black-book-blog/2014/11/17/hint-of-whimsy-saddlerock-ranch-wedding/'
p73
aS'http://www.stylemepretty.com/little-black-book-blog/2014/07/28/pink-garden-wedding-by-heidi-o-photo/'
p74
aS'http://www.stylemepretty.com/illinois-weddings/chicago/2014/04/02/classic-ballroom-wedding-at-the-murphy-auditorium/'
p75
aS'http://www.stylemepretty.com/michigan-weddings/2014/05/15/classic-tented-estate-wedding/'
p76
aS'http://www.stylemepretty.com/destination-weddings/2014/09/09/destination-mexico-wedding-at-hyatt-ziva-puerto-vallarta/'
p77
aS'http://www.stylemepretty.com/destination-weddings/2014/04/19/elegant-spring-wedding-in-normandy-france/'
p78
aS'http://www.stylemepretty.com/illinois-weddings/st-charles-illinois/2014/04/08/vintage-travel-themed-wedding/'
p79
aS'http://www.stylemepretty.com/destination-weddings/2014/05/30/sunny-destination-wedding-punta-cana/'
p80
aS'http://www.stylemepretty.com/2014/10/29/multicultural-chicago-art-museum-wedding/'
p81
aS'http://www.stylemepretty.com/little-black-book-blog/2014/05/26/deployed-groom-returns-home-to-romantic-ranch-wedding/'
p82
aS'http://www.stylemepretty.com/destination-weddings/2014/07/21/simple-sweet-yosemite-elopement/'
p83
aS'http://www.stylemepretty.com/illinois-weddings/2014/09/12/illinois-estate-wedding-in-pretty-pastels/'
p84
aS'http://www.stylemepretty.com/indiana-weddings/indianapolis/2014/09/04/french-inspired-garden-tea-party-wedding-at-laurel-hall/'
p85
aS'http://www.stylemepretty.com/missouri-weddings/2014/03/14/outdoor-fall-wedding-at-cedar-lake-cellars/'
p86
aS'http://www.stylemepretty.com/2014/11/14/summer-chateau-south-of-france-wedding/'
p87
aS'http://www.stylemepretty.com/2014/08/01/gold-and-blush-hued-outdoor-wedding-in-malibu/'
p88
aS'http://www.stylemepretty.com/illinois-weddings/chicago/2014/08/18/romantic-bhldn-inspired-inspiration-shoot/'
p89
aS'http://www.stylemepretty.com/illinois-weddings/lisle/2013/09/06/morton-arboretum-wedding-from-ashley-biess-photography/'
p90
aS'http://www.stylemepretty.com/missouri-weddings/kansas-city-mo/2014/04/14/modern-diy-kansas-city-wedding/'
p91
aS'http://www.stylemepretty.com/minnesota-weddings/minneapolis/2014/07/08/modern-minnesota-backyard-wedding/'
p92
aS'http://www.stylemepretty.com/iowa-weddings/cedar-rapids/2014/05/06/classic-midwestern-fall-wedding/'
p93
aS'http://www.stylemepretty.com/little-black-book-blog/2014/08/18/los-angeles-estate-garden-wedding/'
p94
aS'http://www.stylemepretty.com/2014/12/03/elegant-garden-inspired-wedding-in-st-louis/'
p95
aS'http://www.stylemepretty.com/illinois-weddings/chicago/2014/03/27/modern-chicago-wedding-at-the-metropolitan-club/'
p96
aS'http://www.stylemepretty.com/little-black-book-blog/2013/08/19/milwaukee-wedding-from-heather-cook-elliott-photography-2/'
p97
aS'http://www.stylemepretty.com/2014/09/18/destination-glam-haiku-mill-wedding-by-bryce-covey-photography/'
p98
aS'http://www.stylemepretty.com/illinois-weddings/utica/2013/10/24/forest-wedding-at-starved-rock-state-park-from-laura-fisher-photography/'
p99
aS'http://www.stylemepretty.com/missouri-weddings/st-louis/2014/05/20/preppy-st-louis-wedding-at-forest-park-visitors-center/'
p100
aS'http://www.stylemepretty.com/destination-weddings/2014/11/18/romantic-castle-wedding-in-scotland/'
p101
aS'http://www.stylemepretty.com/destination-weddings/florida-destination-weddings/2014/05/20/traditional-wedding-in-naples/'
p102
aS'http://www.stylemepretty.com/michigan-weddings/detroit/2014/03/24/detroit-wedding-at-the-ford-model-t-plant/'
p103
aS'http://www.stylemepretty.com/little-black-book-blog/2014/10/01/elegant-san-clemente-estate-wedding/'
p104
aS'http://www.stylemepretty.com/destination-weddings/2014/04/14/four-seasons-lanai-elopement/'
p105
aS'http://www.stylemepretty.com/little-black-book-blog/2014/06/30/spring-polo-club-wedding/'
p106
aS'http://www.stylemepretty.com/illinois-weddings/chicago/2014/01/03/classic-chicago-cultural-center-wedding/'
p107
aS'http://www.stylemepretty.com/little-black-book-blog/2014/11/06/rustic-missouri-farm-wedding/'
p108
aS'http://www.stylemepretty.com/2014/05/02/colorful-whimsy-at-les-bourgeois-winery/'
p109
aS'http://www.stylemepretty.com/california-weddings/santa-barbara/2014/06/13/elegant-santa-barbara-estate-wedding/'
p110
aS'http://www.stylemepretty.com/destination-weddings/2014/12/05/romantic-island-elopement-in-kauai-at-kilohana-plantations/'
p111
aS'http://www.stylemepretty.com/illinois-weddings/chicago/2014/07/17/traditional-meets-modern-ballroom-wedding/'
p112
aS'http://www.stylemepretty.com/destination-weddings/2014/04/03/elegant-barcelona-destination-wedding/'
p113
aS'http://www.stylemepretty.com/destination-weddings/2014/01/29/intimate-cabo-san-lucas-wedding/'
p114
aS'http://www.stylemepretty.com/destination-weddings/2014/02/07/pink-cabo-san-lucas-wedding/'
p115
aS'http://www.stylemepretty.com/michigan-weddings/2014/08/25/diy-michigan-farm-wedding/'
p116
aS'http://www.stylemepretty.com/california-weddings/los-angeles/2014/06/02/intimate-los-angeles-wedding-at-smogshoppe/'
p117
aS'http://www.stylemepretty.com/2014/10/20/library-inspired-wedding-at-the-smog-shoppe/'
p118
aS'http://www.stylemepretty.com/little-black-book-blog/2013/12/05/columbus-ohio-wedding-from-rouxby-adrianne-elizabeth-events/'
p119
aS'http://www.stylemepretty.com/little-black-book-blog/2014/07/09/sunny-elings-park-wedding/'
p120
aS'http://www.stylemepretty.com/california-weddings/pleasanton/2014/05/22/glamorous-vintage-inspired-wedding/'
p121
aS'http://www.stylemepretty.com/ohio-weddings/columbus/2014/06/10/new-years-eve-wedding-celebration/'
p122
aS'http://www.stylemepretty.com/missouri-weddings/2014/08/13/traditional-ballroom-wedding-9/'
p123
aS'http://www.stylemepretty.com/california-weddings/san-francisco/2014/11/07/foggy-san-francisco-wedding/'
p124
aS'http://www.stylemepretty.com/2014/08/15/pastel-infused-winery-wedding-in-sonoma/'
p125
aS'http://www.stylemepretty.com/illinois-weddings/2013/09/12/chicago-wedding-from-robyn-rachel-photography-2/'
p126
aS'http://www.stylemepretty.com/2014/08/20/classic-spring-st-louis-wedding/'
p127
aS'http://www.stylemepretty.com/2014/08/27/garden-ranch-malibu-wedding/'
p128
aS'http://www.stylemepretty.com/illinois-weddings/chicago/2014/01/29/pink-wedding-at-chicago-illuminating-company/'
p129
aS'http://www.stylemepretty.com/2013/11/15/lake-forest-illinois-wedding-from-laura-ivanova-photography/'
p130
aS'http://www.stylemepretty.com/california-weddings/carlsbad/2014/05/23/romantic-carlsbad-wedding/'
p131
aS'http://www.stylemepretty.com/illinois-weddings/2013/08/27/fox-river-grove-engagement-session-from-jenelle-kappe-photography/'
p132
aS'http://www.stylemepretty.com/california-weddings/los-angeles/2014/06/26/art-deco-inspired-wedding-at-skirball-cultural-center/'
p133
aS'http://www.stylemepretty.com/illinois-weddings/chicago/2013/07/26/chicago-wedding-from-cristina-g-photography-2/'
p134
aS'http://www.stylemepretty.com/destination-weddings/2014/08/25/mexico-elopement-with-a-statement-orange-dress/'
p135
aS'http://www.stylemepretty.com/destination-weddings/2014/06/27/intimate-belize-wedding/'
p136
aS'http://www.stylemepretty.com/missouri-weddings/st-louis/2014/04/17/diy-farm-wedding/'
p137
aS'http://www.stylemepretty.com/2013/09/27/wiup-camping-engagement-from-diana-marie-photography-winners/'
p138
aS'http://www.stylemepretty.com/destination-weddings/2014/12/11/colorful-puerto-aventuras-wedding/'
p139
aS'http://www.stylemepretty.com/little-black-book-blog/2013/07/18/michigan-surpise-wedding-renewal-from-jamie-may-photography-white-dress-events/'
p140
aS'http://www.stylemepretty.com/illinois-weddings/chicago/2013/08/13/chicago-wedding-from-two-birds-photography/'
p141
aS'http://www.stylemepretty.com/ohio-weddings/cincinnati/2014/03/21/french-inspired-country-club-wedding/'
p142
aS'http://www.stylemepretty.com/2014/07/29/sparkly-new-years-eve-wedding/'
p143
aS'http://www.stylemepretty.com/illinois-weddings/chicago/2014/05/23/sophisticated-chicago-wedding/'
p144
aS'http://www.stylemepretty.com/little-black-book-blog/2014/10/23/colorful-multicultural-marbella-wedding/'
p145
aS'http://www.stylemepretty.com/2013/10/28/eden-prairie-minnesota-wedding-from-munster-rose/'
p146
aS'http://www.stylemepretty.com/wisconsin-weddings/madison-wi/2014/11/19/wisconsin-farm-wedding/'
p147
aS'http://www.stylemepretty.com/2014/09/03/chic-so-cal-ballroom-wedding/'
p148
aS'http://www.stylemepretty.com/missouri-weddings/st-louis/2014/09/24/st-louis-wedding-inspired-by-mexican-heritage/'
p149
aS'http://www.stylemepretty.com/california-weddings/2014/09/23/backyard-al-fresco-wedding-with-fresh-green-details/'
p150
aS'http://www.stylemepretty.com/little-black-book-blog/2014/09/03/a-romantic-san-francisco-city-hall-elopement/'
p151
aS'http://www.stylemepretty.com/illinois-weddings/chicago/2014/01/15/traditional-ballroom-wedding-at-hyatt-regency-ohare/'
p152
aS'http://www.stylemepretty.com/illinois-weddings/2014/10/17/romantic-outdoor-wedding-at-bull-valley-golf-club/'
p153
aS'http://www.stylemepretty.com/little-black-book-blog/2013/09/06/cedar-rapids-wedding-weekend-from-melissa-hayes-photography/'
p154
aS'http://www.stylemepretty.com/little-black-book-blog/2013/08/19/wisconsin-lake-wedding-from-heather-cook-elliott-photography/'
p155
aS'http://www.stylemepretty.com/illinois-weddings/chicago/2013/07/29/chicago-wedding-from-robyn-rachel-photography/'
p156
aS'http://www.stylemepretty.com/california-weddings/san-francisco/2014/08/28/elegant-san-francisco-clift-hotel-wedding/'
p157
aS'http://www.stylemepretty.com/2013/08/06/milwaukee-wedding-from-erin-jean-photography/'
p158
aS'http://www.stylemepretty.com/2014/07/07/summer-french-chateau-wedding/'
p159
aS'http://www.stylemepretty.com/illinois-weddings/chicago/2014/11/10/whimsical-chicago-wedding-at-galleria-marchetti/'
p160
aS'http://www.stylemepretty.com/illinois-weddings/chicago/2013/07/19/chicago-engagement-session-from-katie-kett-photography/'
p161
aS'http://www.stylemepretty.com/little-black-book-blog/2014/10/30/charming-private-estate-wedding-in-sonoma/'
p162
aS'http://www.stylemepretty.com/illinois-weddings/chicago/2014/04/10/nature-museum-wedding-in-chicago-by-yazy-jo/'
p163
aS'http://www.stylemepretty.com/destination-weddings/2014/05/07/romantic-guatemala-wedding-at-san-jose-el-viejo/'
p164
aS'http://www.stylemepretty.com/little-black-book-blog/2014/11/13/elegant-santa-barbara-wedding/'
p165
aS'http://www.stylemepretty.com/illinois-weddings/addison/2013/11/07/addison-illinois-ballroom-wedding-from-brittania-drew-photo-and-video/'
p166
aS'http://www.stylemepretty.com/2014/08/01/french-riviera-garden-wedding/'
p167
aS'http://www.stylemepretty.com/2014/11/20/colorful-summer-wedding-at-the-villa-san-juan/'
p168
aS'http://www.stylemepretty.com/illinois-weddings/chicago/2014/02/28/elegant-chicago-ballroom-wedding/'
p169
aS'http://www.stylemepretty.com/california-weddings/goleta/2014/07/31/romantic-sun-filled-wedding-at-dos-pueblos-ranch/'
p170
aS'http://www.stylemepretty.com/little-black-book-blog/2014/11/25/modern-viceroy-palm-springs-wedding-2/'
p171
aS'http://www.stylemepretty.com/2014/09/02/love-in-adversity-a-real-als-story/'
p172
aS'http://www.stylemepretty.com/2013/12/17/minnesota-lakeside-wedding/'
p173
aS'http://www.stylemepretty.com/2014/08/27/california-garden-wedding-layered-with-pink/'
p174
aS'http://www.stylemepretty.com/destination-weddings/2014/03/24/elegant-ibiza-wedding/'
p175
aS'http://www.stylemepretty.com/2014/12/03/rustic-wisconsin-backyard-wedding/'
p176
aS'http://www.stylemepretty.com/2014/09/19/solage-calistoga-wedding-awash-with-yellow/'
p177
aS'http://www.stylemepretty.com/illinois-weddings/chicago/2014/04/10/romantic-blush-chicago-restaurant-wedding/'
p178
aS'http://www.stylemepretty.com/illinois-weddings/chicago/2014/02/24/ivy-room-wedding/'
p179
aS'http://www.stylemepretty.com/little-black-book-blog/2014/02/26/green-white-nautical-wedding/'
p180
aS'http://www.stylemepretty.com/wisconsin-weddings/milwaukee/2014/04/24/diy-filled-milwaukee-wedding/'
p181
aS'http://www.stylemepretty.com/destination-weddings/2014/11/17/romantic-south-african-wedding-at-rockhaven-farm/'
p182
aS'http://www.stylemepretty.com/little-black-book-blog/2014/08/21/elegant-carneros-inn-wedding/'
p183
aS'http://www.stylemepretty.com/wisconsin-weddings/madison-wi/2014/08/28/lbb-madison-wisconsin-wedding-from-the-mccartneys/'
p184
aS'http://www.stylemepretty.com/little-black-book-blog/2013/11/12/milwaukee-wedding-from-heather-cook-elliott-photography-3/'
p185
aS'http://www.stylemepretty.com/2014/05/05/community-oriented-diy-ohio-barn-wedding/'
p186
aS'http://www.stylemepretty.com/destination-weddings/2014/03/18/nautical-wedding-at-carbon-beach/'
p187
aS'http://www.stylemepretty.com/2014/11/24/rustic-elegance-at-cornerstone-sonoma/'
p188
aS'http://www.stylemepretty.com/2014/06/23/modern-garden-wedding-at-nestldown/'
p189
aS'http://www.stylemepretty.com/destination-weddings/2014/09/11/classic-al-fresco-wedding-in-crete-greece/'
p190
aS'http://www.stylemepretty.com/destination-weddings/2014/08/05/colorful-beach-wedding-at-dreams-palm-beach-punta-cana/'
p191
aS'http://www.stylemepretty.com/california-weddings/2014/06/23/rustic-redlands-wedding/'
p192
aS'http://www.stylemepretty.com/destination-weddings/2014/02/10/riviera-maya-wedding-at-azul-sensatori/'
p193
aS'http://www.stylemepretty.com/illinois-weddings/2014/06/09/black-white-tented-wedding/'
p194
aS'http://www.stylemepretty.com/destination-weddings/2014/02/25/dominican-republic-wedding-at-dreams-la-romana-resort-spa/'
p195
aS'http://www.stylemepretty.com/destination-weddings/2014/06/10/namib-desert-wedding-at-sossusvlei-lodge/'
p196
aS'http://www.stylemepretty.com/little-black-book-blog/2014/11/10/young-love-cotswolds-inspiration-shoot/'
p197
aS'http://www.stylemepretty.com/california-weddings/san-francisco/2014/12/04/elegant-san-francisco-wedding-at-the-st-francis-yacht-club/'
p198
aS'http://www.stylemepretty.com/2014/02/27/the-barn-at-harvest-moon-pond-wedding/'
p199
aS'http://www.stylemepretty.com/california-weddings/st-helena/2014/11/17/romantic-napa-valley-fall-wedding/'
p200
aS'http://www.stylemepretty.com/illinois-weddings/lake-forest/2014/06/25/traditional-lake-forest-wedding-at-the-armour-house/'
p201
aS'http://www.stylemepretty.com/2013/12/04/michigan-backyard-beach-wedding-from-kelly-sweet-photography/'
p202
aS'http://www.stylemepretty.com/illinois-weddings/2014/03/28/disney-inspired-wedding-at-the-majestic-center/'
p203
aS'http://www.stylemepretty.com/illinois-weddings/chicago/2014/08/07/classic-chicago-wedding-at-the-cultural-center/'
p204
aS'http://www.stylemepretty.com/california-weddings/san-francisco/2014/06/03/circus-inspired-wedding-at-the-san-francisco-exploratorium/'
p205
aS'http://www.stylemepretty.com/2014/11/21/whimsical-summer-chicago-wedding/'
p206
aS'http://www.stylemepretty.com/destination-weddings/2014/09/29/old-world-romance-at-costa-navarino-resort/'
p207
aS'http://www.stylemepretty.com/2014/05/19/bohemian-wedding-inspiration/'
p208
aS'http://www.stylemepretty.com/destination-weddings/2014/03/04/spanish-wedding-at-villa-padierna-palace-hotel/'
p209
aS'http://www.stylemepretty.com/little-black-book-blog/2014/12/02/vintage-holly-farm-wedding/'
p210
aS'http://www.stylemepretty.com/little-black-book-blog/2014/08/11/intimate-rustic-garden-wedding-at-rengstorff-house/'
p211
aS'http://www.stylemepretty.com/ohio-weddings/2014/08/29/a-hand-crafted-diy-midwest-meadow-wedding-at-happy-days-lodge/'
p212
aS'http://www.stylemepretty.com/2014/07/09/animal-themed-country-wedding-in-the-united-kingdom/'
p213
aS'http://www.stylemepretty.com/destination-weddings/2014/03/12/cottage-wedding-in-chertsey-quebec/'
p214
aS'http://www.stylemepretty.com/illinois-weddings/2013/08/22/sunrise-engagement-session-from-jacqui-cole-photography/'
p215
aS'http://www.stylemepretty.com/little-black-book-blog/2013/11/18/cincinnati-indian-fusion-wedding-from-lang-thomas-photography/'
p216
aS'http://www.stylemepretty.com/little-black-book-blog/2014/11/05/destination-beach-wedding-in-thailand/'
p217
aS'http://www.stylemepretty.com/destination-weddings/2014/02/13/french-fairytale-wedding-at-chateau-du-rivau/'
p218
aS'http://www.stylemepretty.com/destination-weddings/2014/02/19/valencia-spain-destination-wedding/'
p219
aS'http://www.stylemepretty.com/california-weddings/beverly-hills/2014/06/16/elegant-beverly-hills-estate-wedding/'
p220
aS'http://www.stylemepretty.com/2014/12/03/english-inspired-santa-monica-wedding/'
p221
aS'http://www.stylemepretty.com/illinois-weddings/galena/2013/09/05/country-barn-wedding-in-galena-illinois-from-lauren-wakefield-photography/'
p222
aS'http://www.stylemepretty.com/2014/12/02/romantic-military-wedding-in-sonoma/'
p223
aS'http://www.stylemepretty.com/little-black-book-blog/2014/11/13/authentic-italian-villa-le-colline-wedding/'
p224
aS'http://www.stylemepretty.com/2014/10/22/fashionable-elopement-in-tuscany/'
p225
aS'http://www.stylemepretty.com/little-black-book-blog/2014/07/22/coral-beach-house-wedding-in-maui/'
p226
aS'http://www.stylemepretty.com/2013/12/19/omaha-wedding-at-shadowridge-country-club/'
p227
aS'http://www.stylemepretty.com/illinois-weddings/chicago/2014/06/03/candlelit-chicago-wedding/'
p228
aS'http://www.stylemepretty.com/california-weddings/san-francisco/2014/05/21/elegant-blush-gold-wedding-at-the-fairmont/'
p229
aS'http://www.stylemepretty.com/california-weddings/san-luis-obispo/2014/06/06/thoughtful-rustic-diy-wedding/'
p230
aS'http://www.stylemepretty.com/illinois-weddings/chicago/2014/05/30/elegant-old-chicago-inspired-wedding/'
p231
aS'http://www.stylemepretty.com/michigan-weddings/2014/03/12/nautical-belvedere-yacht-club-wedding/'
p232
aS'http://www.stylemepretty.com/little-black-book-blog/2014/09/30/romantic-paso-robles-winery-wedding/'
p233
aS'http://www.stylemepretty.com/illinois-weddings/chicago/2014/11/05/modern-chicago-loft-wedding/'
p234
aS'http://www.stylemepretty.com/illinois-weddings/chicago/lincoln-park/2014/07/15/elegant-chicago-wedding-at-cafe-brauer/'
p235
aS'http://www.stylemepretty.com/illinois-weddings/2013/08/16/chicago-engagement-from-stacy-able-photography/'
p236
aS'http://www.stylemepretty.com/destination-weddings/2014/02/19/romantic-florence-italy-wedding/'
p237
aS'http://www.stylemepretty.com/illinois-weddings/chicago/2014/03/24/indian-fusion-wedding-at-chicacgos-union-station/'
p238
aS'http://www.stylemepretty.com/california-weddings/2014/05/24/diy-long-meadow-ranch-wedding/'
p239
aS'http://www.stylemepretty.com/california-weddings/san-luis-obispo/2014/11/18/chic-summer-ranch-wedding/'
p240
aS'http://www.stylemepretty.com/illinois-weddings/champaign/2014/08/05/ballroom-wedding-at-university-of-illinois/'
p241
aS'http://www.stylemepretty.com/2014/11/18/chic-chicago-wedding-at-the-museum-of-contemporary-art/'
p242
aS'http://www.stylemepretty.com/illinois-weddings/2013/08/21/chicago-wedding-from-evan-hunt-photo/'
p243
aS'http://www.stylemepretty.com/california-weddings/san-francisco/2014/06/13/san-francisco-wedding-at-the-james-leary-flood-mansion-2/'
p244
aS'http://www.stylemepretty.com/illinois-weddings/chicago/2013/08/06/chicago-art-institute-engagement-session-from-evan-hunt-photo/'
p245
aS'http://www.stylemepretty.com/little-black-book-blog/2014/04/10/new-york-glamour-in-a-wisconsin-barn-wedding/'
p246
aS'http://www.stylemepretty.com/illinois-weddings/2014/07/14/diy-farm-wedding-2/'
p247
aS'http://www.stylemepretty.com/illinois-weddings/2014/03/06/heritage-prairie-farm-wedding/'
p248
aS'http://www.stylemepretty.com/california-weddings/los-angeles/2014/08/11/romantic-los-angeles-wedding/'
p249
aS'http://www.stylemepretty.com/illinois-weddings/chicago/2013/10/28/elegant-classic-wedding-at-room-1520-in-chicago-from-samantha-simmons/'
p250
aS'http://www.stylemepretty.com/california-weddings/carmel-valley/2014/10/22/rainy-spring-wedding-at-holman-ranch/'
p251
aS'http://www.stylemepretty.com/destination-weddings/2014/01/24/tirtha-luhur-wedding/'
p252
aS'http://www.stylemepretty.com/destination-weddings/new-zealand-weddings/2014/11/06/touching-wedding-video-from-queenstown-new-zealand/'
p253
aS'http://www.stylemepretty.com/illinois-weddings/chicago/2013/08/26/chicago-suburbs-wedding-from-jenelle-kappe-photography/'
p254
aS'http://www.stylemepretty.com/illinois-weddings/chicago/2013/09/26/pakistani-fusion-wedding-at-thewit-chicago-from-robyn-rachel-photography/'
p255
aS'http://www.stylemepretty.com/destination-weddings/2014/10/30/contemporary-maui-wedding-at-sugar-beach-events/'
p256
aS'http://www.stylemepretty.com/2014/09/23/timeless-california-wedding-in-shades-of-pink/'
p257
aS'http://www.stylemepretty.com/california-weddings/santa-barbara/2014/08/18/glitzy-backyard-bash-in-the-santa-ynez-valley/'
p258
aS'http://www.stylemepretty.com/little-black-book-blog/2014/09/11/romantic-wilson-creek-winery-wedding/'
p259
aS'http://www.stylemepretty.com/destination-weddings/2014/01/31/mexico-wedding-at-dreams-los-cabos-golf-suite-spa-resort/'
p260
aS'http://www.stylemepretty.com/illinois-weddings/2014/05/16/traditional-golf-club-wedding/'
p261
aS'http://www.stylemepretty.com/little-black-book-blog/2014/09/23/czech-republic-bohemian-barn-wedding/'
p262
aS'http://www.stylemepretty.com/destination-weddings/2014/02/04/private-estate-wedding-in-mahaulepu-kauai/'
p263
aS'http://www.stylemepretty.com/2014/10/09/romantic-outdoor-affair-in-a-sea-of-pastel/'
p264
aS'http://www.stylemepretty.com/illinois-weddings/chicago/2013/08/29/winnetka-community-house-wedding-by-katherine-salvatori-photography/'
p265
aS'http://www.stylemepretty.com/indiana-weddings/bloomington-in/2014/10/27/romantic-winter-wedding-at-indiana-university/'
p266
aS'http://www.stylemepretty.com/2014/06/20/blush-gold-orchard-wedding/'
p267
aS'http://www.stylemepretty.com/california-weddings/monterey/2014/10/06/whimsical-diy-wedding-with-pizzaz-at-the-memory-garden/'
p268
aS'http://www.stylemepretty.com/2014/10/08/modern-ballroom-wedding-by-the-sea/'
p269
aS'http://www.stylemepretty.com/illinois-weddings/2014/04/11/romantic-wine-country-wedding/'
p270
aS'http://www.stylemepretty.com/2014/10/21/pastel-glamour-in-santa-monica/'
p271
aS'http://www.stylemepretty.com/destination-weddings/2014/04/25/fairy-tale-wedding-at-the-eiffel-tower/'
p272
aS'http://www.stylemepretty.com/destination-weddings/2014/12/03/elegant-charleston-wedding-at-gibbes-museum-of-art/'
p273
aS'http://www.stylemepretty.com/little-black-book-blog/2014/11/24/rustic-romance-at-calamigos-ranch/'
p274
aS'http://www.stylemepretty.com/little-black-book-blog/2014/07/11/al-fresco-wedding-in-santa-barbara/'
p275
aS'http://www.stylemepretty.com/illinois-weddings/chicago/2013/12/17/chicago-wedding-at-ravenswood-event-center/'
p276
aS'http://www.stylemepretty.com/california-weddings/temecula/2014/06/16/rustic-meets-romantic-diy-wedding/'
p277
aS'http://www.stylemepretty.com/illinois-weddings/chicago/2013/11/01/chicago-wedding-at-fultons-on-the-river-from-jennifer-jackson-photography/'
p278
aS'http://www.stylemepretty.com/illinois-weddings/chicago/2014/06/13/vintage-garden-party-wedding-2/'
p279
aS'http://www.stylemepretty.com/2014/10/31/white-on-white-santa-monica-winter-wedding/'
p280
aS'http://www.stylemepretty.com/2014/03/27/french-wedding-in-the-countryside-of-bergerac/'
p281
aS'http://www.stylemepretty.com/destination-weddings/2014/10/22/classic-elegant-slovakia-wedding-at-hotel-albrecht/'
p282
a.