ccopy_reg
_reconstructor
p0
(cgensim.corpora.dictionary
Dictionary
p1
c__builtin__
object
p2
Ntp3
Rp4
(dp5
S'num_docs'
p6
I282
sS'token2id'
p7
(dp8
Vfawn
p9
I2222
sVwound
p10
I4839
sVloggia
p11
I4600
sVlong-sleev
p12
I5071
sVdivers
p13
I4890
sVsaver
p14
I3992
sVhand-print
p15
I4537
sVall-girl
p16
I4953
sVvila
p17
I5250
sVyellow
p18
I1418
sVhitch
p19
I323
sVfour
p20
I662
sVsleev
p21
I3044
sVsleep
p22
I2909
sVasian
p23
I4728
sV6pm
p24
I911
sVcaptain
p25
I3942
sVhate
p26
I3573
sVyonder
p27
I4761
sVlace
p28
I2054
sVtrolley
p29
I3182
sVwhose
p30
I1622
sVblahnik
p31
I1664
sVaccur
p32
I2388
sVrue
p33
I5145
sVcava
p34
I4854
sVstudy-abroad
p35
I4375
sVstationeri
p36
I3850
sVsorri
p37
I1390
sVcrush
p38
I4644
sVsweetest
p39
I475
sVadolesc
p40
I4637
sVbike
p41
I2593
sVunder
p42
I1080
sVhermann
p43
I3086
sVpolenta
p44
I5094
sVgracious
p45
I3788
sVsway
p46
I2483
sVworth
p47
I613
sVsparkli
p48
I3132
sVdigit
p49
I3911
sVlack
p50
I2055
sVeveri
p51
I266
sVshannessi
p52
I5052
sVugli
p53
I4666
sVcompassion
p54
I229
sVblanket
p55
I1476
sVrise
p56
I4435
sVvoic
p57
I1039
sVmissionari
p58
I4826
sVvase
p59
I1342
sVgaslight
p60
I1906
sVfun-fil
p61
I4636
sVgovern
p62
I2762
sVaffect
p63
I2199
sVusa-mad
p64
I4806
sVemili
p65
I2108
sVvast
p66
I2145
sVchapel
p67
I2608
sVkilohana
p68
I3148
sVschool
p69
I443
sVbestfriend
p70
I197
sVsentosa
p71
I4906
sVwooden
p72
I1902
sVshowcas
p73
I859
sVmargarita
p74
I3737
sVwednesday
p75
I1127
sVpreviou
p76
I2712
sVcanyon
p77
I2450
sVintens
p78
I2439
sVbarbecu
p79
I1517
sVgeorgetown
p80
I3667
sVwhirlwind
p81
I531
sVenjoy
p82
I260
sVhinsdal
p83
I5009
sVreview
p84
I4845
sV2:00am
p85
I5005
sVbalveni
p86
I3504
sVray-ban
p87
I1740
sVmiller
p88
I3150
sVdirect
p89
I645
sVcomplement
p90
I3398
sVbudget
p91
I1794
sVchef
p92
I1671
sVmansion
p93
I3593
sVsecond
p94
I444
sVstreet
p95
I863
sVsooth
p96
I4908
sVbrides-to-b
p97
I1213
sVsemest
p98
I3924
sVchen
p99
I3822
sVill
p100
I4264
sVxvth
p101
I4513
sVn
p102
I2877
sVillumin
p103
I3415
sVeven
p104
I264
sVaim
p105
I3461
sVoldest
p106
I5123
sVhide
p107
I820
sVpistejova
p108
I5239
sVgoddess
p109
I4939
sVsolemn
p110
I4837
sVasid
p111
I2488
sVorchestra
p112
I3967
sVnear
p113
I1407
sVvest
p114
I4138
sVtala
p115
I4679
sVmigrat
p116
I4790
sVjuxtapos
p117
I2053
sV1998
p118
I4024
sVconduct
p119
I2760
sVnew
p120
I387
sVever
p121
I41
sVdisney
p122
I4382
sVtold
p123
I606
sVmed
p124
I4479
sVmeg
p125
I1282
sVhero
p126
I2351
sVzach
p127
I4301
sVyosemit
p128
I2769
sVsleek
p129
I3741
sVherb
p130
I2748
sVhydrangea
p131
I69
sVnever
p132
I1177
sVlodg
p133
I2765
sVesquisit
p134
I263
sVhere
p135
I1487
sVseventi
p136
I4286
sVbroccolini
p137
I4852
sVmet
p138
I83
sVstudio
p139
I1122
sVfleet
p140
I2406
sVpancreat
p141
I2365
sVpath
p142
I1112
sV100
p143
I3161
sVpleasur
p144
I2113
sVenrol
p145
I3310
sVloir
p146
I4507
sVdaughter
p147
I1137
sVdisney/beatl
p148
I4383
sVnaturel
p149
I3699
sVmilitari
p150
I3323
sVgalor
p151
I3734
sValbrecht
p152
I5225
sVdru
p153
I4705
sVthrive
p154
I4047
sVrobin
p155
I2301
sVprecis
p156
I1818
sVjame
p157
I2001
sVsaint
p158
I2988
sVmentor
p159
I3773
sVsmoke
p160
I5208
sVstudi
p161
I2442
sVclich
p162
I2306
sVjami
p163
I3591
sVpendant
p164
I4094
sVcounti
p165
I3058
sVgolden
p166
I2181
sVrecently-engag
p167
I3718
sVimposs
p168
I3809
sVvolunt
p169
I4296
sVcampaign
p170
I5149
sVstevensvil
p171
I4374
sVstraw
p172
I1755
sVgrandma
p173
I2534
sVkinsey
p174
I4743
sVtreatment
p175
I2953
sVhomemad
p176
I671
sVbridesbab
p177
I4127
sVbrought
p178
I20
sVviejo
p179
I3919
sVsila
p180
I4753
sVsterl
p181
I3533
sVmelani
p182
I4163
sVatrium
p183
I2121
sVtotal
p184
I497
sVgreencastl
p185
I4819
sVunit
p186
I3022
sVhighli
p187
I4218
sVsarah
p188
I4440
sVcough
p189
I4643
sVmicrophon
p190
I4144
sVspoke
p191
I1827
sVwould
p192
I150
sVtwosom
p193
I3440
sVknock-your-socks-off
p194
I4388
sVsweater
p195
I737
sVprescript
p196
I1466
sVtail
p197
I4145
sVprincess
p198
I3491
sVcali
p199
I3857
sVprogram
p200
I3015
sVmusic
p201
I87
sVuntil
p202
I1874
sVrecommend
p203
I1302
sVstrike
p204
I2074
sVnorg
p205
I3454
sVcoachella
p206
I4486
sVnate
p207
I2860
sVtype
p208
I1335
sVtell
p209
I1029
sVpalo
p210
I4111
sVpaperwork
p211
I3479
sVrelax
p212
I785
sVhaha
p213
I4691
sVnotic
p214
I584
sVhurt
p215
I1378
sVwarn
p216
I1877
sVphone
p217
I409
sVconnecticut
p218
I3383
sVwarm
p219
I1125
sVpecan
p220
I714
sVadult
p221
I914
sVformer
p222
I3866
sVtimtam
p223
I4450
sV405
p224
I5217
sV90
p225
I4310
sVhole
p226
I4681
sVhold
p227
I324
sVmust
p228
I581
sVshoot
p229
I827
sVirvin
p230
I2465
sVflora
p231
I2225
sVword
p232
I1170
sVroom
p233
I110
sVfarm-to-t
p234
I5091
sVshame
p235
I4716
sVabubnd
p236
I157
sVcandelabra
p237
I1478
sVmo
p238
I2061
sVwork
p239
I536
sVmi
p240
I3032
sVrudd
p241
I5077
sVcandlestick
p242
I1219
sVmj
p243
I4993
sVoxford
p244
I4983
sVnovel
p245
I3879
sVfluidli
p246
I3330
sVitself
p247
I2183
sVlocket
p248
I1281
sVintroduc
p249
I967
sVlaid-back
p250
I2311
sVmetaphor
p251
I5163
sVroot
p252
I437
sVcarmel
p253
I4107
sVshook
p254
I3574
sVla-
p255
I3220
sVsun-set
p256
I5021
sVwang
p257
I141
sVclimat
p258
I2173
sVgive
p259
I819
sVfoodi
p260
I4027
sVclimax
p261
I2105
sVcenturi
p262
I2171
sVinfus
p263
I1704
sVsantorelli
p264
I1073
sVexquisit
p265
I272
sVhoney
p266
I2538
sVia
p267
I3803
sVreplet
p268
I4947
sVdefinit
p269
I3068
sVwant
p270
I142
sVbasebal
p271
I2322
sVkalaheo
p272
I5031
sVdavid
p273
I2380
sVattract
p274
I3295
sVcring
p275
I5008
sVrisk
p276
I5189
sVgigant
p277
I2815
sVtacoma
p278
I2717
sVend
p279
I258
sVthing
p280
I490
sVtravel
p281
I132
sVvidaai
p282
I4760
sVstint
p283
I3894
sVceremoni
p284
I26
sVhow
p285
I67
sVhot
p286
I845
sVdrummer
p287
I4933
sVhor
p288
I4598
sVhop
p289
I1701
sVstephani
p290
I3181
sVanswer
p291
I1538
sVdisappoint
p292
I936
sVaunt
p293
I4231
sVbeach
p294
I761
sVtavern
p295
I4337
sVpizza
p296
I856
sVrecogn
p297
I3679
sVelizabeth
p298
I2825
sVmess
p299
I3875
sVchines
p300
I2452
sVafter
p301
I2
sVbryce
p302
I2957
sVlab
p303
I680
sVbefor
p304
I14
sVwrong
p305
I1083
sVbeauti
p306
I191
sVsparkler
p307
I860
sVlaw
p308
I686
sVarch
p309
I2691
sVbreath-tak
p310
I4079
sVutil
p311
I2192
sVhandl
p312
I2410
sVprofess
p313
I4408
sVattempt
p314
I2759
sVthird
p315
I743
sVtutori
p316
I4340
sV5+
p317
I3613
sVamid
p318
I4106
sVspeckl
p319
I4880
sVstain
p320
I2662
sVgreet
p321
I952
sVchildhood
p322
I638
sVgreek
p323
I1569
sVmaintain
p324
I2858
sVenviron
p325
I261
sVout-of-the-box
p326
I2861
sVincorpor
p327
I74
sVenter
p328
I40
sVexclus
p329
I4721
sVgreec
p330
I1802
sVorder
p331
I1911
sVbackdrop
p332
I188
sVwine
p333
I2302
sVburberri
p334
I4772
sVorigin
p335
I93
sVbow-ti
p336
I1355
sVdeco
p337
I1095
sVkick
p338
I4786
sVchunk
p339
I4688
sVdeck
p340
I1521
sVdiagnos
p341
I4247
sVmuffin
p342
I3013
sVoffici
p343
I91
sVnever-end
p344
I3172
sVorang
p345
I1647
sVbecaus
p346
I192
sVbunni
p347
I1093
sVhelena
p348
I2018
sVprivileg
p349
I716
sVoven
p350
I1861
sVappar
p351
I2321
sVbobbi
p352
I4068
sVjapan
p353
I5030
sVflexibl
p354
I1547
sVvari
p355
I1340
sVtennesse
p356
I2164
sVmarriott
p357
I3965
sVplaton
p358
I3677
sVgentl
p359
I2180
sVamericana
p360
I4967
sVfit
p361
I659
sVsugar
p362
I5041
sVfogust
p363
I3319
sVfix
p364
I2092
sVchristoph
p365
I4916
sVavocado
p366
I3972
sVdenver
p367
I2381
sVcrew
p368
I643
sVbetter
p369
I1881
sVsun-kiss
p370
I3202
sVoffic
p371
I3738
sVsingapur
p372
I4523
sVlovingli
p373
I1625
sVfig
p374
I4859
sVbhldn-chicago
p375
I3707
sVpersist
p376
I2066
sVhillsid
p377
I2182
sVhidden
p378
I2770
sVdeidr
p379
I4476
sVeasier
p380
I651
sVboater
p381
I3805
sVlanikuhonua
p382
I1711
sVthen
p383
I127
sVthem
p384
I486
sVanim
p385
I174
sVtherapi
p386
I2718
sVtourist
p387
I1606
sVlambert
p388
I2056
sVenrich
p389
I3831
sVworkout
p390
I2606
sVsafe
p391
I1006
sVcheesi
p392
I2172
sVbreak
p393
I2823
sVband
p394
I189
sVmontefiano
p395
I2186
sVall-tim
p396
I1474
sVpromis
p397
I1991
sVthey
p398
I128
sVinterrupt
p399
I4654
sVsixteen
p400
I1618
sVlifelong
p401
I689
sVsilver
p402
I1603
sVbank
p403
I2932
sVtremend
p404
I4512
sVchoic
p405
I639
sValex
p406
I2991
sVvictori
p407
I2802
sVlorena
p408
I3772
sVdebut
p409
I4244
sVl
p410
I848
sVbonu
p411
I203
sVaccommod
p412
I4228
sVfaraway
p413
I3255
sVnewport
p414
I1178
sVluca
p415
I1493
sVroast
p416
I5096
sVeach
p417
I254
sVwent
p418
I523
sVeuropean
p419
I1522
sVsuzann
p420
I5004
sVside
p421
I1511
sVforver
p422
I289
sVbond
p423
I202
sVhywel
p424
I1937
sVhanger
p425
I4863
sVdrinks/snack
p426
I3364
sVallyson
p427
I166
sVnavi
p428
I2471
sVresum
p429
I594
sVenorm
p430
I3188
sVfairmont
p431
I4635
sVtaught
p432
I1620
sVrequestor
p433
I4284
sVforgot
p434
I4563
sVk-ci
p435
I4324
sVlogo
p436
I3625
sVdawn
p437
I839
sVsaturday
p438
I1161
sVwhip
p439
I1473
sVd.c.
p440
I2576
sVburnham
p441
I3961
sVlait
p442
I3418
sVvelvet
p443
I750
sVpalat
p444
I878
sVgoe
p445
I2093
sVgod
p446
I2350
sVnewli
p447
I983
sVblythefield
p448
I2392
sVdiesel
p449
I4417
sVsand
p450
I2736
sVmason
p451
I1719
sVombr
p452
I3549
sVre
p453
I1000
sVlaid
p454
I1275
sVdaniel
p455
I2824
sVnic
p456
I4091
sVrare
p457
I3740
sVreader
p458
I3240
sVgot
p459
I301
sVwasher
p460
I4808
sVpartook
p461
I1731
sVforth
p462
I1585
sVforti
p463
I2046
sVsf-centric
p464
I4824
sVgate
p465
I2702
sVbibl
p466
I2592
sVcigar
p467
I2324
sVportug
p468
I3285
sVcutest
p469
I1641
sVwritten
p470
I2681
sVfave
p471
I1483
sVsheer
p472
I4948
sVfree
p473
I3060
sVstandard
p474
I1976
sVjennif
p475
I3170
sVserenad
p476
I2680
sVevil
p477
I3365
sV243
p478
I3093
sVrobinson
p479
I3176
sVpretend
p480
I2368
sVcheckerboard
p481
I4931
sVellington
p482
I3616
sVsilent
p483
I4663
sVharpist
p484
I5144
sVperform
p485
I2253
sVsunshin
p486
I1167
sVpuzzl
p487
I3935
sVsuburb
p488
I3819
sVangl
p489
I5024
sVrock-and-rol
p490
I879
sVmadmen-in-train
p491
I3874
sVloui
p492
I1106
sVrenew
p493
I3597
sVflown
p494
I5131
sVsprig
p495
I3433
sVisn
p496
I968
sVisl
p497
I4902
sVbaltic
p498
I1354
sVman-mad
p499
I3696
sVostens
p500
I1940
sVbite
p501
I1882
sVovernight
p502
I2903
sVstewart
p503
I4336
sVjoslyn
p504
I2582
sVnature-lov
p505
I3564
sVgrade
p506
I4110
sVportugues
p507
I2674
sVmesmer
p508
I4164
sVglisten
p509
I4722
sVdeonna
p510
I4357
sVkinsterna
p511
I1807
sVwash
p512
I5054
sVartistri
p513
I2204
sValreadi
p514
I169
sVnow-husband
p515
I2333
sVbacara
p516
I186
sVwasn
p517
I906
sVneighborhood
p518
I2187
sVthick
p519
I742
sVagre
p520
I620
sVfantast
p521
I3609
sVtoy
p522
I1544
sViqphoto
p523
I805
sVacquaint
p524
I1655
sVattach
p525
I2205
sVsarcasm
p526
I1388
sVtop
p527
I1871
sV1,2,3,4
p528
I2882
sVamsterdam
p529
I3926
sVsometim
p530
I1016
sVstack
p531
I1391
sVmercuri
p532
I1284
sVserendipit
p533
I728
sVmaster
p534
I2416
sVtoo
p535
I607
sVtom
p536
I1032
sVrethymno
p537
I4168
sVarchitect
p538
I3024
sVhollywood
p539
I325
sVjohn
p540
I78
sVfreelanc
p541
I3167
sVtoe
p542
I4197
sVurban
p543
I1336
sVkeri
p544
I3713
sVguidanc
p545
I3963
sVescort
p546
I1251
sVluncheon
p547
I5010
sV2am
p548
I910
sVtook
p549
I903
sVwisdom
p550
I1169
sVnirvana
p551
I1502
sVkindest
p552
I4350
sVmaxim
p553
I4542
sVceremony-signifi
p554
I4732
sVwestern
p555
I2738
sVsomewhat
p556
I2026
sVhazelnut
p557
I3412
sVhappili
p558
I310
sVhorn
p559
I2539
sVwinter/holiday
p560
I3356
sVsticker
p561
I1471
sVtoronto
p562
I3133
sVtrek
p563
I3649
sVunbeat
p564
I1924
sVsilli
p565
I1602
sVtarget
p566
I1414
sVsophomor
p567
I1317
sVprovid
p568
I104
sVhike
p569
I2613
sVolder
p570
I2314
sVtree
p571
I747
sVroyal
p572
I2830
sVmedley
p573
I4747
sVmattel
p574
I1542
sVshower
p575
I598
sVmatter
p576
I975
sVoceanfront
p577
I3053
sViron
p578
I2596
sVminut
p579
I379
sVcloudless
p580
I4399
sVcork
p581
I4776
sVpre-wed
p582
I4429
sVmini
p583
I1963
sVfashion
p584
I3070
sVhandkerchief
p585
I2536
sVfloweri
p586
I3144
sVrunner
p587
I1744
sVboston
p588
I4013
sVmodern
p589
I380
sVmind
p590
I977
sVmine
p591
I1593
sVkyle
p592
I1549
sVraw
p593
I2559
sVseed
p594
I1009
sVcohes
p595
I2526
sVhpcc
p596
I3620
sVminiatur
p597
I701
sVbluegrass/rock
p598
I3211
sVseen
p599
I597
sVseem
p600
I113
sVocean
p601
I2620
sVmint
p602
I1723
sVzohe
p603
I3272
sVstrength
p604
I2688
sVluxuri
p605
I367
sVdaddy/daught
p606
I4736
sVinexpens
p607
I4141
sVespeci
p608
I262
sV1960
p609
I3940
sVsnow
p610
I1923
sVwipe
p611
I3650
sVbrandon
p612
I3135
sVshallot
p613
I4878
sVchest
p614
I3510
sVcontact
p615
I2152
sVderek
p616
I1682
sVtuscani
p617
I1781
sVawait
p618
I3639
sVeagerli
p619
I3641
sVcookout
p620
I1679
sVblue
p621
I1202
sVcurv
p622
I4668
sVbeliz
p623
I3505
sVgermani
p624
I3587
sVplenti
p625
I2189
sVthough
p626
I129
sVbruce
p627
I3802
sVmarit
p628
I3981
sVlimitless
p629
I691
sVdessi
p630
I3842
sVmemorabilia
p631
I4789
sVmarin
p632
I695
sVvolleybal
p633
I3194
sVgussi
p634
I3588
sVmouth
p635
I4659
sVcate
p636
I3509
sVletter
p637
I3592
sVmehndi
p638
I4748
sVcoin
p639
I4242
sValabama
p640
I164
sVglow
p641
I3619
sVtradit
p642
I746
sVsimplic
p643
I2316
sVlate-night
p644
I1712
sVdon
p645
I249
sVrichard
p646
I3634
sVleahi
p647
I4351
sVgrove
p648
I2409
sVupenn
p649
I2812
sVflop
p650
I2408
sVm
p651
I973
sVdog
p652
I248
sVdoe
p653
I3358
sVtech
p654
I482
sVwiegerova
p655
I5251
sVnatalia
p656
I4715
sV6-month
p657
I619
sVcamb
p658
I2283
sVedgi
p659
I1798
sVscotch
p660
I3528
sVscream
p661
I1768
sVcame
p662
I211
sVmarvel
p663
I3262
sVtoan
p664
I4112
sVnon-cheesi
p665
I780
sVbomb
p666
I3506
sVendear
p667
I3787
sVvisitor
p668
I2990
sVnikkah
p669
I2250
sVrandom
p670
I1387
sVsage
p671
I4100
sVshuck-to
p672
I4964
sVkaterina
p673
I1806
sVliza
p674
I3771
sVcorp
p675
I3910
sVpoison
p676
I5177
sVacademi
p677
I4574
sVmeant.to.b
p678
I3421
sVearth
p679
I3484
sVnevada
p680
I3548
sVethan
p681
I5100
sVhendrick
p682
I2807
sVbearer
p683
I4052
sVtoast
p684
I605
sVabsolut
p685
I156
sVtier
p686
I3437
sVfacil
p687
I4019
sVlovebird
p688
I4903
sVquaint
p689
I3123
sVmenu
p690
I1283
sVexplain
p691
I1959
sVrestaur
p692
I898
sVbust
p693
I4773
sVhaven
p694
I4651
sVrico
p695
I5223
sVtheme
p696
I1031
sVbusi
p697
I762
sVrich
p698
I899
sVmend
p699
I1495
sVtropic
p700
I2276
sVhoard
p701
I1587
sVflorenc
p702
I888
sVrica
p703
I3198
sVmonica
p704
I778
sVwaltz
p705
I3271
sVdj
p706
I34
sV400
p707
I4500
sVseclud
p708
I1632
sVlanai
p709
I3051
sVde
p710
I1997
sVstop
p711
I862
sVdc
p712
I2014
sVceil
p713
I2124
sVpetit
p714
I4795
sVguatemala
p715
I3914
sVgiggl
p716
I294
sVrocki
p717
I4285
sVroundabout
p718
I3900
sVcushion
p719
I3615
sVdy
p720
I1139
sVremarri
p721
I4629
sVdeneitra
p722
I2676
sVdu
p723
I4249
sVdr
p724
I4217
sVearn
p725
I3317
sVbar
p726
I918
sVseuss
p727
I5215
sVchock-ful
p728
I2838
sVravenswood
p729
I2558
sV16
p730
I3920
sVniguel
p731
I4695
sVbay
p732
I627
sVsauc
p733
I2564
sVtwice
p734
I1782
sVbad
p735
I2889
sVcontrast
p736
I1236
sVkauai
p737
I2236
sVsurpis
p738
I4754
sVessenc
p739
I2776
sVenchant
p740
I1799
sVsetup
p741
I3429
sVrespond
p742
I2870
sVblew
p743
I2522
sVschreiber
p744
I4193
sVreread
p745
I2850
sVmonemvasia
p746
I1811
sVheirloom
p747
I1265
sVlisianthu
p748
I4089
sVchiffon
p749
I3761
sVmontoro
p750
I3152
sVbroach
p751
I5193
sVhonestli
p752
I2463
sVreddish-purpl
p753
I4618
sVpile
p754
I3284
sVgoodnight
p755
I4690
sVresult
p756
I436
sVrespons
p757
I4137
sVfail
p758
I5047
sVchristian
p759
I4139
sVnews
p760
I3642
sVbest
p761
I196
sVjuliet
p762
I3417
sVexpertis
p763
I271
sVpastel
p764
I4384
sVcrown
p765
I4899
sVsaid
p766
I596
sV06
p767
I2193
sVonto
p768
I3283
sVmitch
p769
I4577
sVcuff
p770
I3142
sVaway
p771
I185
sVchristi
p772
I1673
sVgentleman
p773
I4783
sVmud
p774
I2247
sVfigur
p775
I887
sVenglish-them
p776
I4304
sVinvalu
p777
I1856
sVawak
p778
I2888
sVdrawn
p779
I2129
sVadnan
p780
I4919
sVapproach
p781
I1087
sVvibrant
p782
I2590
sVmanolo
p783
I1718
sVco.
p784
I1676
sVwe
p785
I143
sVmen
p786
I1527
sVwa
p787
I139
sVemigr
p788
I2348
sVlover
p789
I2966
sVguest-book
p790
I1359
sVmetal
p791
I2545
sVwi
p792
I4422
sVboss
p793
I1206
sVextens
p794
I943
sVsandal
p795
I3157
sVother.w
p796
I4660
sVwear
p797
I1393
sVhuang
p798
I3468
sVcousin
p799
I3297
sV29th
p800
I3066
sVkitchen
p801
I679
sVsymphoni
p802
I4755
sVprotect
p803
I3287
sVplanner
p804
I413
sVmarie-clair
p805
I5221
sVcow
p806
I4185
sVbeck
p807
I4970
sVmeredith
p808
I2671
sVhowev
p809
I964
sVpakistani
p810
I4923
sVagainst
p811
I1187
sVcountri
p812
I929
sVall-boy
p813
I4952
sVjelli
p814
I1458
sVjack
p815
I4119
sVanticipatori
p816
I1395
sVskill
p817
I4547
sVassur
p818
I1047
sVtone
p819
I1033
sVeditorial-styl
p820
I653
sVjosh
p821
I1989
sVexcess
p822
I4647
sVbettina
p823
I5192
sV2nd
p824
I3729
sVdorm
p825
I3476
sVkaren
p826
I847
sVpom
p827
I4330
sVdougla
p828
I3689
sVparadis
p829
I2252
sV250
p830
I3638
sVguid
p831
I1262
sVassum
p832
I1046
sVurbana-champaign
p833
I1561
sVpanel
p834
I4544
sVspeak
p835
I1018
sVrecut
p836
I1303
sVelements/metaphor
p837
I3000
sVjenel
p838
I3451
sVchloe
p839
I3511
sVbeef
p840
I5089
sVmaraca
p841
I3627
sVunion
p842
I1124
sVranunculu
p843
I1299
sVloveli
p844
I573
sVthree
p845
I1415
sVbeen
p846
I194
sVplantat
p847
I3153
sVbeer
p848
I2835
sVmuch
p849
I86
sVstainless
p850
I4801
sVpasta
p851
I4961
sVinterest
p852
I966
sVbasic
p853
I1475
sV7pm
p854
I4885
sVwarmth
p855
I1876
sVhesit
p856
I318
sVquickli
p857
I424
sVlife
p858
I355
sVvotiv
p859
I1347
sVdeeper
p860
I2090
sVeastern
p861
I2347
sVendur
p862
I3891
sVfast-forward
p863
I4070
sVanywher
p864
I1396
sVstress-fre
p865
I3270
sVfest
p866
I3258
sVcraft
p867
I1239
sVchile
p868
I2876
sVchild
p869
I2212
sVcatch
p870
I1667
sVday..h
p871
I3560
sVrang
p872
I3288
sVspin
p873
I1619
sVcum
p874
I4054
sVlionel
p875
I2898
sVflorentin
p876
I2177
sVtudor
p877
I748
sVsave
p878
I3472
sVservic
p879
I448
sVproperti
p880
I718
sVmakenzi
p881
I1571
sVcut-cryst
p882
I3401
sVair
p883
I1546
sVemploy
p884
I3374
sVweren
p885
I1349
sVslo
p886
I2623
sVmarriag
p887
I574
sVoccas
p888
I4208
sVmanel
p889
I3052
sVpharmaci
p890
I4148
sVanchor
p891
I4968
sVkentucki
p892
I4703
sVtwenty-four
p893
I4295
sVtheresa
p894
I3475
sVbachelorhood
p895
I4349
sVseven
p896
I1560
sVgarag
p897
I4782
sVmetropolitan
p898
I2938
sVcana
p899
I2726
sVmaleana
p900
I1717
sVcano
p901
I1131
sVis
p902
I339
sVtabl
p903
I1028
sVit
p904
I77
sVdesigner/plann
p905
I2633
sVaudrey
p906
I3754
sVplayer
p907
I1817
sVim
p908
I3050
sVil
p909
I3448
sVbillow
p910
I4928
sVin
p911
I72
sVcook
p912
I550
sVviolin
p913
I1346
sVfiddle-cello
p914
I2016
sVunforgett
p915
I2573
sVtidbit
p916
I3291
sVturner
p917
I3837
sVsever
p918
I1308
sVif
p919
I329
sVgrown
p920
I1485
sVdri
p921
I4992
sVhong
p922
I2296
sVcredit
p923
I2454
sVreceiv
p924
I1420
sVsuggest
p925
I2482
sVmake
p926
I371
sVquirk
p927
I4766
sVpolaroid
p928
I1157
sVbella
p929
I1198
sVforehead
p930
I4740
sVcraigslist
p931
I3254
sVm.u.a.h
p932
I5103
sVpatient
p933
I1864
sVsplit
p934
I3576
sVladure
p935
I3624
sVelliott
p936
I558
sVcassandra
p937
I2728
sVjerri
p938
I1491
sVcomplet
p939
I230
sVwheel
p940
I4465
sVidyl
p941
I1917
sVfuss
p942
I2729
sVevid
p943
I3815
sVnod
p944
I3845
sVsacramento
p945
I2975
sVella
p946
I4470
sVsocial
p947
I2338
sVhang
p948
I955
sVpashmina
p949
I3226
sVrain
p950
I1367
sVhand
p951
I62
sVdelight
p952
I554
sVnorwegian
p953
I1504
sVrais
p954
I425
sVeffortlessli
p955
I2107
sVesther
p956
I4403
sVkim
p957
I3192
sVmulti-lay
p958
I2417
sVselfless
p959
I2141
sVtuna
p960
I4884
sV500
p961
I4104
sVovers
p962
I1862
sVchateau
p963
I2804
sVtune
p964
I3134
sVkid
p965
I2964
sVpop-psycholog
p966
I3883
sVtassel
p967
I4985
sVkept
p968
I1274
sVthu
p969
I3556
sVnotr
p970
I3076
sVgame
p971
I563
sV1971
p972
I3242
sVaisl
p973
I163
sVhand-craft
p974
I4471
sVclient
p975
I1674
sVshortli
p976
I450
sVgreatest
p977
I2984
sVthi
p978
I489
sVmother
p979
I704
sVannapoli
p980
I4575
sVeveryth
p981
I43
sVchandeli
p982
I1669
sVcampu
p983
I3025
sVleft
p984
I970
sVmedicin
p985
I4162
sVbrick
p986
I4035
sVindigo
p987
I676
sVbirth
p988
I2947
sVjust
p989
I79
sVvic
p990
I5053
sVphoto
p991
I410
sVcargil
p992
I869
sVrush
p993
I3661
sVorient
p994
I4892
sVvideograph
p995
I1875
sVbandwidth
p996
I2207
sVbirmingham
p997
I5167
sVhuman
p998
I3789
sVcape
p999
I4080
sVyet
p1000
I794
sVlanguag
p1001
I1808
sVjose
p1002
I3915
sVbhangra
p1003
I4730
sVham
p1004
I5202
sVeasi
p1005
I650
sVpaulin
p1006
I4510
sVlegion
p1007
I3321
sVcanidc
p1008
I5162
sVhad
p1009
I61
sVideal
p1010
I2134
sVevanston
p1011
I3166
sVtraffic
p1012
I3993
sVspread
p1013
I4820
sVboard
p1014
I1638
sVlawrenc
p1015
I2677
sVels
p1016
I3208
sVeast
p1017
I557
sVhat
p1018
I3110
sVgave
p1019
I57
sVopt
p1020
I4278
sVpoggi
p1021
I4605
sVdreami
p1022
I1612
sVmayb
p1023
I2987
sVpreserv
p1024
I2138
sVmayo
p1025
I575
sVdonat
p1026
I1245
sVviewmast
p1027
I3726
sVlcd
p1028
I4493
sV3pm
p1029
I2197
sVbackground
p1030
I917
sVelabor
p1031
I3786
sVdreamt
p1032
I937
sVvidicam
p1033
I515
sVopi
p1034
I4190
sVathlet
p1035
I4015
sVapart
p1036
I1426
sVshoulder
p1037
I3177
sVavenu
p1038
I4182
sVturn-of-the-centuri
p1039
I3959
sVcrumb-catch
p1040
I4777
sVgift
p1041
I1696
sVspecif
p1042
I1077
sVnudg
p1043
I4982
sVhunt
p1044
I3590
sVsteph
p1045
I3180
sVremind
p1046
I1741
sVlasal
p1047
I849
sVnight
p1048
I388
sVhung
p1049
I3368
sVsebastian
p1050
I2261
sVchertsey
p1051
I4468
sVcolorado-bas
p1052
I3858
sVmercuryglass
p1053
I3354
sVright
p1054
I1116
sVdean
p1055
I1055
sVcreek
p1056
I4817
sVdeal
p1057
I934
sVcuisin
p1058
I2217
sVczech
p1059
I5013
sVflatter
p1060
I4086
sVinterp
p1061
I3477
sVsomehow
p1062
I456
sVborn
p1063
I204
sVintern
p1064
I2749
sV-40c
p1065
I2724
sVdear
p1066
I2345
sVheritag
p1067
I1488
sVradiohead
p1068
I1553
sVproudli
p1069
I592
sVcreep
p1070
I4831
sVorchid
p1071
I3986
sVbefriend
p1072
I3081
sVsprawl
p1073
I3432
sVcooper
p1074
I1135
sVfor
p1075
I51
sVbottom
p1076
I4466
sVmothers-in-law
p1077
I5035
sVoutspoken
p1078
I2510
sVfox
p1079
I3447
sVice
p1080
I71
sVre-visit
p1081
I4026
sVruffl
p1082
I3389
sVsaleswoman
p1083
I5157
sVfog
p1084
I4887
sVtuazon
p1085
I4198
sVumm
p1086
I1035
sVcondit
p1087
I1052
sVhome-mad
p1088
I5015
sVink-stain
p1089
I5070
sVcord
p1090
I1584
sVpeek
p1091
I405
sVplu
p1092
I414
sVblack-ti
p1093
I3043
sVbold
p1094
I1639
sVww2
p1095
I3538
sVtour
p1096
I3307
sVbrailey
p1097
I2822
sVburi
p1098
I4641
sVcori
p1099
I1914
sVwhi
p1100
I2386
sVsift
p1101
I2069
sVburner
p1102
I3581
sVcolleg
p1103
I227
sVpaid
p1104
I2063
sVstylish
p1105
I1830
sVone-of-a-kind
p1106
I2251
sVsuper
p1107
I788
sVdescrib
p1108
I2456
sVchapter
p1109
I1050
sVsilhouett
p1110
I5082
sVoren
p1111
I2673
sVoreo
p1112
I2382
sVdiner
p1113
I1684
sVcowboy
p1114
I4735
sVcoral
p1115
I1238
sVchattahooche
p1116
I4733
sVslightli
p1117
I4570
sVliteratur
p1118
I1492
sVsurround
p1119
I2028
sVunfortun
p1120
I2436
sVfestiv
p1121
I2223
sVdinner
p1122
I555
sVmontana
p1123
I4272
sVale
p1124
I4151
sVafternoon
p1125
I2201
sVcherish
p1126
I2396
sVadel
p1127
I4620
sVcommit
p1128
I4129
sVcourtesi
p1129
I3687
sVproduc
p1130
I2713
sVunequivoc
p1131
I2485
sVflatbread
p1132
I2532
sVinjuri
p1133
I4206
sVpotato
p1134
I4872
sVembroid
p1135
I2528
sVcivil
p1136
I3583
sVsock
p1137
I1413
sVschwartz
p1138
I3473
sVsergio
p1139
I1510
sVprofession
p1140
I1467
sVbound
p1141
I1581
sVpressman
p1142
I2638
sVkhorassan
p1143
I2432
sVdown
p1144
I251
sVcreativ
p1145
I932
sVrizzuto
p1146
I4725
sVcoastal
p1147
I226
sVlieu
p1148
I1279
sVwrap
p1149
I1352
sVold
p1150
I393
sVbodic
p1151
I2933
sVcandic
p1152
I5161
sVbaroqu
p1153
I5061
sVtami
p1154
I1979
sVcrowd
p1155
I1846
sVwai
p1156
I4997
sVbrain-storm
p1157
I2393
sVbolivia
p1158
I3708
sVboutiqu
p1159
I1208
sVtransform
p1160
I2078
sVsunlight
p1161
I2443
sVhappi
p1162
I309
sVavail
p1163
I2628
sVstuck
p1164
I2911
sVweatherwax
p1165
I3606
sVjoseph
p1166
I342
sVway
p1167
I519
sVacknowledg
p1168
I1609
sVjane
p1169
I2297
sVcall
p1170
I210
sVconstantli
p1171
I548
sVjana
p1172
I5234
sVcalm
p1173
I2036
sVhead
p1174
I313
sVmedium
p1175
I3544
sVform
p1176
I288
sVoffer
p1177
I1552
sVforc
p1178
I1988
sVexcerpt
p1179
I4059
sVarmi
p1180
I3580
sVford
p1181
I3028
sV26th
p1182
I4225
sVgranddaught
p1183
I4072
sVheat
p1184
I4261
sVhear
p1185
I314
sVoutdon
p1186
I3424
sVrefriger
p1187
I1967
sVsnowi
p1188
I3611
sVpre-set
p1189
I4281
sVtrue
p1190
I501
sVwell-travel
p1191
I4896
sVfriends/famili
p1192
I3072
sVagain
p1193
I1373
sVoutdid
p1194
I4566
sVami
p1195
I2820
sVwineri
p1196
I1558
sVgetaway
p1197
I2703
sVparisian
p1198
I3631
sVdeluna
p1199
I1242
sVcrystal
p1200
I2895
sVnicest
p1201
I2951
sVzara
p1202
I4201
sVmolina
p1203
I3775
sVduet
p1204
I2015
sVpixar
p1205
I2476
sVhighlif
p1206
I3868
sVfeet
p1207
I3278
sVadorn
p1208
I2120
sVtrim
p1209
I4179
sV150
p1210
I4113
sVtrio
p1211
I1332
sVadopt
p1212
I161
sV28th
p1213
I2645
sVelop
p1214
I2219
sVclassic
p1215
I765
sVstronger
p1216
I467
sVtournament
p1217
I1576
sVdiagnosi
p1218
I4008
sVhistory-inspir
p1219
I4671
sVdrive
p1220
I649
sVcandlelit
p1221
I3047
sVexist
p1222
I2403
sVglanc
p1223
I1172
sVprayer
p1224
I3778
sVrequest
p1225
I722
sVdesir
p1226
I4487
sVcleverli
p1227
I1519
sVenlist
p1228
I2529
sVdoobi
p1229
I4317
sVtrip
p1230
I500
sVgiraff
p1231
I5233
sVassembl
p1232
I2031
sVvista
p1233
I3997
sVno
p1234
I582
sVna
p1235
I2248
sVredwood
p1236
I3702
sVintang
p1237
I2867
sVwhen
p1238
I528
sVne
p1239
I3035
sVactor
p1240
I4118
sVpomodoro
p1241
I4962
sVcommemor
p1242
I1094
sVtin
p1243
I3233
sVpasadena
p1244
I990
sVrole
p1245
I3200
sVjone
p1246
I2467
sVtest
p1247
I2102
sVtie
p1248
I1780
sVsmell
p1249
I2624
sVroll
p1250
I824
sVrealiti
p1251
I1300
sVmatur
p1252
I697
sV's
p1253
I1650
sVgarland
p1254
I3767
sVpanoram
p1255
I2817
sVmeghan
p1256
I2706
sVstutter
p1257
I3577
sVfelt
p1258
I47
sVpoem
p1259
I4061
sVlydia
p1260
I5236
sVgreeneri
p1261
I667
sVjourney
p1262
I343
sVintent
p1263
I2868
sVreign
p1264
I5188
sVconsid
p1265
I767
sVeasili
p1266
I1248
sVtaste-test
p1267
I741
sVhumor
p1268
I1702
sVentrust
p1269
I4973
sVweekend
p1270
I522
sVpageantri
p1271
I3077
sVadrianna
p1272
I4966
sVballoon
p1273
I3540
sVtahitian
p1274
I2271
sVyounger
p1275
I4633
sVcastaway
p1276
I2506
sVlonger
p1277
I2058
sVglass
p1278
I1259
sVmessinia
p1279
I4425
sVintimaci
p1280
I2310
sVyacht
p1281
I1353
sVlilliput
p1282
I3117
sVaref
p1283
I4230
sVgeometr
p1284
I1694
sVbrew
p1285
I2837
sVbatteri
p1286
I4232
sVtime
p1287
I130
sVpush
p1288
I2498
sVserious
p1289
I858
sVdaili
p1290
I2973
sVsoror
p1291
I3250
sVgown
p1292
I1100
sVshimmi
p1293
I1011
sVcincinnati
p1294
I2037
sVmatron
p1295
I2950
sVchain
p1296
I2084
sVpatina
p1297
I3551
sVrob
p1298
I3230
sVcelebr
p1299
I219
sVfocus
p1300
I877
sVhorseback
p1301
I672
sVlaura
p1302
I685
sVmagnific
p1303
I2809
sVsignific
p1304
I1972
sVmile
p1305
I700
sVjarro
p1306
I4812
sVlauri
p1307
I2670
sVchair
p1308
I1668
sVbomber
p1309
I3507
sVmilk
p1310
I3957
sVrow
p1311
I2370
sVdecid
p1312
I240
sVmiddl
p1313
I2332
sVbitter
p1314
I4850
sVeleph
p1315
I4478
sV1940
p1316
I4066
sVproxim
p1317
I3678
sVfather
p1318
I45
sVindiana
p1319
I4359
sVenvironment
p1320
I1541
sVyve
p1321
I3023
sVcertainli
p1322
I1225
sVdecis
p1323
I241
sVgatsbi
p1324
I2178
sVcottag
p1325
I4469
sValana
p1326
I4621
sVprop
p1327
I5037
sVhume
p1328
I4692
sVkey-tar
p1329
I4266
sVme
p1330
I82
sVover-the-top
p1331
I1530
sVsourc
p1332
I1164
sVsappi
p1333
I2851
sVstring
p1334
I1323
sVminist
p1335
I4944
sVgrill
p1336
I2535
sVhannah
p1337
I2704
sVunfamiliar
p1338
I1036
sV66th
p1339
I2930
sVpablo
p1340
I2879
sVembark
p1341
I2961
sVcross-countri
p1342
I4832
sVtailgat
p1343
I3078
sVoctob
p1344
I711
sVjoin
p1345
I807
sVblast
p1346
I813
sVexact
p1347
I2043
sVcool
p1348
I233
sVepic
p1349
I1764
sVcaptiv
p1350
I2211
sVundeni
p1351
I2665
sVlevel
p1352
I2057
sVtear
p1353
I124
sVteas
p1354
I2143
sVleftov
p1355
I4541
sVqueenstown
p1356
I4914
sVbrother
p1357
I1477
sVteau
p1358
I4511
sVmagnet
p1359
I3810
sVitem
p1360
I1857
sVsoooo
p1361
I1445
sVheadpiec
p1362
I1700
sVdiy
p1363
I1685
sVteal
p1364
I2800
sVteam
p1365
I481
sVquick
p1366
I423
sVguy
p1367
I307
sVelegantli
p1368
I2805
sVlibrari
p1369
I3239
sVbehr
p1370
I3756
sVshave
p1371
I1748
sVthe
p1372
I126
sVpork
p1373
I1736
sVbrave
p1374
I1842
sVvilla
p1375
I831
sVbest-friendship
p1376
I2946
sVcarrot
p1377
I4561
sVtrend
p1378
I4828
sVmoat
p1379
I4509
sVconced
p1380
I4830
sVsign
p1381
I1600
sVthinker
p1382
I2863
sVsensibl
p1383
I4122
sVworn
p1384
I3783
sVmorel
p1385
I5001
sVattir
p1386
I916
sVbake
p1387
I3094
sVport
p1388
I2336
sVafghanistan
p1389
I4049
sVlennox
p1390
I2678
sVappear
p1391
I4050
sVmt
p1392
I5175
sVform-fit
p1393
I4370
sVrepli
p1394
I1001
sVrollup
p1395
I724
sVfavour
p1396
I5014
sVmelt
p1397
I3812
sVuniform
p1398
I4022
sVcurrent
p1399
I837
sVhealth
p1400
I1936
sVsuspect
p1401
I601
sVrida
p1402
I4334
sVmont
p1403
I4945
sVburl
p1404
I3683
sVvese
p1405
I5249
sVdel
p1406
I2610
sVcassi
p1407
I3841
sVground
p1408
I2491
sVaddi
p1409
I3907
sVera
p1410
I3464
sVlovestru.ck
p1411
I4617
sVpose
p1412
I3286
sVoat
p1413
I4328
sVarizona
p1414
I3314
sVlebanes
p1415
I2414
sVgener
p1416
I564
sVmakeup
p1417
I1716
sVfrench
p1418
I2047
sVconfer
p1419
I4243
sVwater
p1420
I2166
sVlate-summ
p1421
I2184
sVsnack
p1422
I2567
sVaddress
p1423
I2515
sVskeleton
p1424
I2142
sValong
p1425
I168
sVstem
p1426
I3937
sVteacher
p1427
I789
sVwait
p1428
I2378
sVbox
p1429
I1092
sVboy
p1430
I1792
sVabalon
p1431
I3969
sVchina
p1432
I2774
sVboast
p1433
I4233
sVinvit
p1434
I1270
sVbrilliant
p1435
I5114
sVmy
p1436
I89
sVmezzanin
p1437
I3658
sVjay
p1438
I3872
sVbinder
p1439
I3163
sVproud
p1440
I2497
sVtrial
p1441
I1832
sVjed
p1442
I3656
sVghidewon
p1443
I4257
sVthirti
p1444
I3648
sVhealthi
p1445
I566
sVextrem
p1446
I1850
sVbob
p1447
I201
sVvw
p1448
I2723
sVheidi-o-photo
p1449
I2195
sVreclaim
p1450
I3527
sVourselv
p1451
I400
sVcastellon
p1452
I4515
sVwinner
p1453
I3568
sVlove
p1454
I81
sVaidan
p1455
I3313
sVextra
p1456
I273
sVtuxedo
p1457
I1334
sVprefer
p1458
I1628
sVupstair
p1459
I4048
sVtill
p1460
I4683
sVsnowboard
p1461
I3575
sVleav
p1462
I353
sVseattl
p1463
I2337
sV1st
p1464
I3243
sVcaipirinha
p1465
I1666
sVinstal
p1466
I4538
sV200km
p1467
I4224
sVpost
p1468
I2711
sVmarket
p1469
I1063
sVsky
p1470
I1369
sVyourself
p1471
I2739
sVcreami
p1472
I2745
sVandi
p1473
I2517
sVfrothi
p1474
I4087
sVmemori
p1475
I897
sVseashel
p1476
I2737
sVconfluenc
p1477
I3541
sVunivers
p1478
I507
sVvisit
p1479
I517
sVby
p1480
I22
sVvineyard
p1481
I1557
sVsoundsystem
p1482
I4496
sVlive
p1483
I359
sVwood
p1484
I756
sVloung
p1485
I1714
sVmedinah
p1486
I4043
sVjuno
p1487
I2468
sVgabbana
p1488
I5232
sVprep
p1489
I4963
sVtoday
p1490
I3138
sVathena
p1491
I2758
sVlhuillier
p1492
I4788
sVexploratorium
p1493
I4404
sVdolphin
p1494
I3049
sVclub
p1495
I1230
sVpeopl
p1496
I99
sVbratislava
p1497
I5227
sVintrigu
p1498
I2050
sVco-best
p1499
I3397
sVoregon
p1500
I2361
sVenhanc
p1501
I3237
sVdowntown
p1502
I648
sVvisual
p1503
I1760
sVkerri
p1504
I2808
sVindic
p1505
I1437
sVpen-pal
p1506
I3480
sVpoppi
p1507
I3120
sVwoodnot
p1508
I2605
sVventur
p1509
I3442
sVeffort
p1510
I1887
sVeasiest
p1511
I255
sVbehalf
p1512
I4638
sVmascot
p1513
I3524
sVhyatt
p1514
I3795
sVgraphic
p1515
I1456
sVmoccasin
p1516
I4980
sVcar
p1517
I1221
sVprepar
p1518
I416
sVnetflix
p1519
I2249
sVbattl
p1520
I2971
sVuniqu
p1521
I793
sVlondon
p1522
I1809
sVmoreso
p1523
I4134
sVfli
p1524
I818
sVwallet
p1525
I4065
sVvega
p1526
I3441
sVcan
p1527
I212
sVflo
p1528
I4318
sVcal
p1529
I2607
sVmill
p1530
I2967
sVgerman
p1531
I4616
sVcarolina
p1532
I4354
sVlaughter
p1533
I2926
sVplum
p1534
I1505
sVfulton
p1535
I5201
sVimpec
p1536
I331
sVheart
p1537
I315
sVfigura
p1538
I1252
sVkamil
p1539
I3916
sVviceroy
p1540
I4005
sVfabul
p1541
I2841
sVstream
p1542
I2268
sVpredict
p1543
I995
sVchip
p1544
I4954
sVwinston
p1545
I4498
sVaccordian
p1546
I2689
sVagent
p1547
I5224
sVbridesmaid
p1548
I1356
sVheard
p1549
I2329
sVcrazi
p1550
I930
sVbeani
p1551
I3361
sVcoincident
p1552
I835
sVvallarta
p1553
I830
sVchic
p1554
I1762
sVvecchia
p1555
I2318
sVcardin
p1556
I2792
sVoccup
p1557
I2707
sVpink
p1558
I1533
sVmultipl
p1559
I980
sVwinter
p1560
I1926
sVsidney
p1561
I5080
sVsailboat
p1562
I1072
sVhippi
p1563
I1490
sVhisaishi
p1564
I2462
sVfiligre
p1565
I3408
sVdraperi
p1566
I4533
sVsnapdragon
p1567
I2099
sVwrite
p1568
I614
sValway
p1569
I6
sVsunday
p1570
I1027
sVanyon
p1571
I541
sVs.
p1572
I3635
sVpure
p1573
I1779
sVbeau
p1574
I4685
sVnyc
p1575
I855
sVspa
p1576
I4029
sVsassi
p1577
I3128
sVmasterpiec
p1578
I3118
sVsuffer
p1579
I5180
sVmap
p1580
I3012
sVproduct
p1581
I419
sVmar
p1582
I2616
sVlandmark
p1583
I3833
sVcocktail
p1584
I925
sVacoust
p1585
I3970
sVmay
p1586
I376
sVmax
p1587
I3982
sVdive
p1588
I1454
sVfed
p1589
I3256
sVsouthern
p1590
I462
sVcourtenay
p1591
I2039
sV4th
p1592
I1784
sVmad
p1593
I3222
sVricker
p1594
I3720
sVemilia
p1595
I4858
sVdate
p1596
I31
sVsuch
p1597
I470
sVsuck
p1598
I2075
sVbenji
p1599
I3840
sVflourish
p1600
I2684
sVgrow
p1601
I565
sVrepeat
p1602
I3936
sVman
p1603
I822
sVstress
p1604
I2073
sVwestchest
p1605
I526
sVjohnson
p1606
I4405
sVconscious
p1607
I2453
sVgoal
p1608
I4319
sVquot
p1609
I3016
sVfavorit
p1610
I657
sVst
p1611
I3038
sVq
p1612
I997
sVinform
p1613
I1362
sVswitch
p1614
I2484
sVcombin
p1615
I29
sVcrept
p1616
I3896
sVafrican
p1617
I2200
sVbasket
p1618
I2669
sVtall
p1619
I2664
sV3-piec
p1620
I5059
sVsf
p1621
I2976
sVtalk
p1622
I480
sVmacaron
p1623
I3626
sVcute
p1624
I838
sVcomfort
p1625
I926
sVro
p1626
I5076
sVjeun
p1627
I3299
sVanticip
p1628
I177
sVhorrifi
p1629
I4652
sVprovocateur
p1630
I5240
sVmidnight
p1631
I4870
sVcuti
p1632
I2839
sVkong
p1633
I2299
sVestera
p1634
I3654
sVgraduat
p1635
I302
sVwindhoek
p1636
I4298
sVfather-daught
p1637
I3407
sVshake
p1638
I2907
sVelain
p1639
I802
sVequip
p1640
I1687
sVcold
p1641
I3608
sVstill
p1642
I465
sVmainli
p1643
I370
sVworship
p1644
I3092
sVcaf
p1645
I3394
sVbechet
p1646
I5062
sVhanki
p1647
I1144
sVmust-hav
p1648
I4433
sVsprinkl
p1649
I1120
sVgroup
p1650
I953
sVthank
p1651
I485
sVchoo
p1652
I4582
sVwillow
p1653
I755
sVcalligraph
p1654
I2395
sVtorn
p1655
I2275
sVopportun
p1656
I399
sVtull
p1657
I4103
sVinstantli
p1658
I1526
sVmaid
p1659
I1462
sVwindow
p1660
I2146
sVsail
p1661
I3193
sVfarmer
p1662
I3216
sVmail
p1663
I2154
sVmain
p1664
I1893
sV23th
p1665
I1879
sVironwe
p1666
I3113
sVwell-wish
p1667
I611
sVnon
p1668
I3224
sVevok
p1669
I1689
sVchalk
p1670
I4455
sVfling
p1671
I3816
sVeleven
p1672
I3327
sVscrambl
p1673
I3645
sVexpertli
p1674
I4780
sViniti
p1675
I336
sVsuccul
p1676
I1324
sVunderneath
p1677
I2720
sVlunch
p1678
I1365
sVconquer
p1679
I4007
sVaesthet
p1680
I2011
sVhalf
p1681
I1586
sVnot
p1682
I389
sVanecdot
p1683
I2518
sVcourtship
p1684
I2216
sVnow
p1685
I391
sVmessinian
p1686
I4426
sVhall
p1687
I1360
sVintroduct
p1688
I76
sVoutweigh
p1689
I3700
sVwagon
p1690
I4464
sVterm
p1691
I2980
sVargentina
p1692
I4821
sVfun-lov
p1693
I2376
sVname
p1694
I1289
sVfalk
p1695
I5065
sVlewi
p1696
I3008
sVclutch
p1697
I1675
sVfrank
p1698
I4358
sVdidn
p1699
I245
sVoliv
p1700
I3946
sVdrawbridg
p1701
I4505
sVneedl
p1702
I4166
sVsepar
p1703
I1389
sVmagazin
p1704
I3011
sVolin
p1705
I3776
sVbreach
p1706
I4214
sVpilot
p1707
I4796
sVrock
p1708
I1160
sVjanuari
p1709
I1767
sVconfid
p1710
I1235
sVcourag
p1711
I2595
sVem
p1712
I3328
sVel
p1713
I3913
sVen
p1714
I2508
sVformerli
p1715
I4387
sVmexico
p1716
I3335
sVed
p1717
I3904
sVindividu
p1718
I335
sVjenn
p1719
I2466
sVcontinu
p1720
I549
sVdramat
p1721
I3143
sVpersian
p1722
I1896
sV*not*
p1723
I4829
sVex
p1724
I4645
sVbegun
p1725
I1982
sVyear
p1726
I151
sVgirl
p1727
I295
sVlesson
p1728
I4176
sVflair-
p1729
I3217
sVcanada
p1730
I2295
sVshown
p1731
I2881
sVwholeheartedli
p1732
I1878
sVjackson
p1733
I3621
sVgroov
p1734
I4940
sVspace
p1735
I1318
sVprofit
p1736
I3122
sVmiyazaki
p1737
I2470
sVobispo
p1738
I2619
sVgiddi
p1739
I1400
sVbespok
p1740
I3757
sVstupid
p1741
I4665
sVskylin
p1742
I2940
sVinternet
p1743
I1174
sVuncl
p1744
I3308
sVbubl
p1745
I21
sVladder
p1746
I5033
sVpsssst
p1747
I1506
sVintegr
p1748
I4132
sVromanc
p1749
I825
sVjw
p1750
I3964
sVearlier
p1751
I2218
sVglimps
p1752
I4975
sVunmistak
p1753
I3906
sVcupcak
p1754
I1681
sVdomest
p1755
I3275
sVmillion
p1756
I1497
sVenvelop
p1757
I3002
sVlmu
p1758
I360
sVcart
p1759
I1949
sVontario
p1760
I2636
sVcalifornia
p1761
I209
sVcarl
p1762
I4239
sVromant
p1763
I109
sVspan
p1764
I2264
sVheadband
p1765
I4032
sVkeith
p1766
I4764
sVunpredict
p1767
I2279
sVcard
p1768
I1222
sVcare
p1769
I213
sVreusabl
p1770
I4800
sVunderwear
p1771
I5247
sVmascaro
p1772
I4519
sVcouldn
p1773
I236
sVmoruska
p1774
I5237
sVwaiter
p1775
I3745
sVamanda
p1776
I2773
sVrecom
p1777
I432
sVpunk
p1778
I1159
sVobstetr
p1779
I5222
sVrefus
p1780
I3426
sVhonest
p1781
I1173
sVturn
p1782
I1034
sVlindsey
p1783
I571
sVplace
p1784
I412
sVgordon
p1785
I666
sVclock
p1786
I5139
sVgreenhous
p1787
I1101
sVblacksmith
p1788
I3095
sVembrac
p1789
I2612
sVmendhi
p1790
I2243
sVnicknam
p1791
I1813
sVthink
p1792
I491
sVfrequent
p1793
I1434
sVfirst
p1794
I49
sVblind
p1795
I16
sVmishka
p1796
I3151
sVromania
p1797
I2369
sVsuspend
p1798
I1327
sVdirectli
p1799
I935
sVcarri
p1800
I25
sVonc
p1801
I394
sVdiana
p1802
I3561
sVrachel
p1803
I4136
sVbeverag
p1804
I1662
sVwalk-in
p1805
I3727
sVone
p1806
I395
sVlong
p1807
I363
sVbradshaw
p1808
I18
sVspanish
p1809
I1319
sVring
p1810
I108
sVdrove
p1811
I2327
sVopen
p1812
I398
sVsize
p1813
I1311
sVgig
p1814
I3218
sVgiven
p1815
I58
sVian
p1816
I1624
sVbianca
p1817
I3652
sVchristma
p1818
I2085
sVteenag
p1819
I483
sVioanna
p1820
I1804
sVlanka
p1821
I3334
sVcaught
p1822
I218
sVwaist
p1823
I4807
sVfierc
p1824
I1690
sVcircu
p1825
I4398
sVciti
p1826
I28
sVassort
p1827
I2446
sV2
p1828
I153
sVtragic
p1829
I2374
sVbreez
p1830
I2170
sVcircl
p1831
I924
sVbreakin
p1832
I3100
sVdaunt
p1833
I1540
sVwhite
p1834
I147
sVearthi
p1835
I2042
sVmelbourn
p1836
I4587
sVfriend
p1837
I52
sVcastillero
p1838
I1223
sVhug
p1839
I1907
sVhub
p1840
I2985
sVthat
p1841
I125
sVever-resourc
p1842
I2459
sVseason
p1843
I1307
sVundoubtedli
p1844
I506
sVnavarino
p1845
I4427
sVartifact
p1846
I1943
sVcreameri
p1847
I3922
sVharbour
p1848
I4457
sVlogist
p1849
I4268
sVmostli
p1850
I979
sVbloomington
p1851
I1580
sVsulkin
p1852
I1325
sVshirley
p1853
I1117
sVseat
p1854
I1971
sVholder
p1855
I3351
sVthan
p1856
I484
sVboyfriend
p1857
I2323
sVserv
p1858
I729
sV10
p1859
I2379
sV13
p1860
I1084
sV12
p1861
I152
sV15
p1862
I908
sVremembr
p1863
I3228
sV17
p1864
I2339
sVchevel
p1865
I3245
sVhand-written
p1866
I4114
sVrequir
p1867
I3950
sV10:00
p1868
I2010
sVstyliz
p1869
I4436
sVbanner
p1870
I626
sVvictorian
p1871
I2722
sVtemporarili
p1872
I3555
sVglide
p1873
I3572
sVbalanc
p1874
I2033
sVemphasis
p1875
I4083
sVwere
p1876
I524
sVposit
p1877
I783
sVcounselor
p1878
I4386
sVyoung-lov
p1879
I4309
sVbranchi
p1880
I1210
sVseri
p1881
I2799
sVand
p1882
I7
sVmountain
p1883
I2617
sVdelic
p1884
I2128
sVrene
p1885
I2714
sVsan
p1886
I725
sVangel
p1887
I172
sVann
p1888
I2741
sVpremier
p1889
I101
sVmistakenli
p1890
I4165
sVani
p1891
I173
sVsad
p1892
I2441
sV13th
p1893
I2755
sVsay
p1894
I726
sVsax
p1895
I1821
sVrent
p1896
I1968
sVdeliv
p1897
I3214
sVportrait
p1898
I2114
sVbreakfast
p1899
I3099
sVmarquett
p1900
I2949
sVsaw
p1901
I441
sVworst
p1902
I3651
sVkevin
p1903
I3623
sVsat
p1904
I1410
sVcoach
p1905
I1564
sVpleasant
p1906
I2440
sVdoorbel
p1907
I3276
sVsandwich
p1908
I4877
sVengin
p1909
I3516
sVsquar
p1910
I1321
sVadvic
p1911
I1837
sVtulip
p1912
I2942
sVveteran
p1913
I3459
sVfondest
p1914
I2226
sVworrisom
p1915
I5043
sVzoo
p1916
I3372
sVnote
p1917
I1964
sValtogeth
p1918
I2803
sVmr.
p1919
I1150
sVastonishingli
p1920
I4529
sVlion
p1921
I3352
sVtake
p1922
I478
sVfingertip
p1923
I3692
sVbailey
p1924
I2668
sVgreen
p1925
I1642
sVwettest
p1926
I2281
sVnoth
p1927
I390
sVsurf
p1928
I1757
sV200
p1929
I4526
sVbegin
p1930
I195
sVsure
p1931
I472
sVimportantli
p1932
I333
sVreloc
p1933
I4074
sVgeoff
p1934
I2580
sVmileston
p1935
I4657
sVtrack
p1936
I1331
sVprice
p1937
I2477
sVknew
p1938
I347
sVexcus
p1939
I4584
sVeclect
p1940
I1481
sVoff-whit
p1941
I4628
sVbutterfli
p1942
I1216
sVchampagn
p1943
I1985
sVcrochet
p1944
I4532
sVpair
p1945
I1297
sVknee
p1946
I2433
sVbeth
p1947
I2149
sVicon
p1948
I846
sVkasia
p1949
I4585
sVlawn
p1950
I3419
sVstapl
p1951
I3636
sVbore
p1952
I4395
sVlater
p1953
I351
sVsale
p1954
I1007
sVtooth
p1955
I3438
sVburgeon
p1956
I4640
sVtweet
p1957
I4159
sVsunset
p1958
I471
sVwind
p1959
I2955
sVpattern
p1960
I3934
sVlink
p1961
I3010
sVsenior
p1962
I446
sVlindsay
p1963
I4707
sVsalt
p1964
I2385
sVdetroit
p1965
I3026
sVperci
p1966
I993
sVmadison
p1967
I3376
sVshot
p1968
I1913
sVsolar
p1969
I5179
sVshow
p1970
I451
sVelat
p1971
I3277
sVatom
p1972
I3502
sVrendit
p1973
I4283
sVsalon
p1974
I3156
sVkendl
p1975
I3979
sVbright
p1976
I632
sVbaldinini
p1977
I5226
sVshoe
p1978
I1749
sVpermiss
p1979
I1440
sVsouthwestern
p1980
I4290
sVcorner
p1981
I2344
sVlabel
p1982
I3832
sVcontemporari
p1983
I1678
sVfifti
p1984
I1615
sVpackham
p1985
I4092
sVonli
p1986
I396
sVslow
p1987
I1014
sVambros
p1988
I2429
sVstair
p1989
I3647
sV16-piec
p1990
I3391
sVreel
p1991
I3719
sVplume
p1992
I5206
sV2004
p1993
I4897
sVactiv
p1994
I1656
sVhusband
p1995
I68
sVspecialti
p1996
I1754
sVprettiest
p1997
I4210
sVrobl
p1998
I1003
sVblack
p1999
I1200
sVaina
p2000
I2202
sVsierra
p2001
I3554
sVenthusiasm
p2002
I2699
sVsummertim
p2003
I1513
sVwool
p2004
I4810
sVover
p2005
I402
sVlesli
p2006
I2782
sVlue
p2007
I3893
sVtrivia
p2008
I5057
sVkitschi
p2009
I3714
sVpresbyterian
p2010
I2659
sVnearli
p2011
I1152
sVvariou
p2012
I1341
sVget
p2013
I293
sVcannon
p2014
I4731
sVrobbi
p2015
I4676
sVmarlborough
p2016
I1810
sVblenda
p2017
I3140
sVspace-
p2018
I1975
sVexagger
p2019
I4646
sVsecondari
p2020
I2289
sVtailor
p2021
I4804
sVprogress
p2022
I3305
sVpedest
p2023
I1732
sVtrade
p2024
I1545
sVlaguna
p2025
I2641
sVbrosnan
p2026
I2502
sVstroll
p2027
I2291
sVtruli
p2028
I134
sVreveal
p2029
I2499
sVwinter/snow
p2030
I3357
sVpragu
p2031
I3490
sValuminum
p2032
I4768
sVradar
p2033
I1739
sVleather
p2034
I3522
sVallman
p2035
I3971
sVborrow
p2036
I1205
sVtiki
p2037
I4377
sVtwelv
p2038
I4361
sVu2
p2039
I5085
sVbrouwer
p2040
I5115
sVuntradit
p2041
I3498
sVscott
p2042
I880
sVtent
p2043
I2273
sVwhere
p2044
I529
sV16th
p2045
I2167
sVvision
p2046
I516
sV2011-
p2047
I3728
sVpicnic
p2048
I4307
sVconcert
p2049
I871
sVburst
p2050
I3559
sVfloat
p2051
I4038
sVsurgeri
p2052
I3495
sVrockford
p2053
I2500
sVstylist
p2054
I1831
sV1920
p2055
I3460
sVlabori
p2056
I681
sVsean
p2057
I826
sVpeoni
p2058
I1113
sVsandov
p2059
I4439
sVstite
p2060
I3968
sVreminisc
p2061
I2786
sVsport
p2062
I3431
sVentrepreneur
p2063
I3764
sVwonder
p2064
I881
sVfull-blown
p2065
I4146
sVto-go
p2066
I4339
sVplummet
p2067
I2067
sVpennsylvania
p2068
I3717
sVdisco
p2069
I4932
sVgoodridg
p2070
I4258
sVmayor
p2071
I3119
sVteacup
p2072
I3210
sVjt
p2073
I2843
sV3
p2074
I618
sVwayn
p2075
I3040
sVbetween
p2076
I630
sVsoftbal
p2077
I3905
sVimport
p2078
I332
sVvender
p2079
I2079
sVnamibian
p2080
I4276
sVacross
p2081
I883
sVtux
p2082
I5011
sVpunta
p2083
I2734
sVspars
p2084
I4291
sVgrandpar
p2085
I1616
sVaugust
p2086
I1375
sVparent
p2087
I585
sVmarch
p2088
I2642
sVmarvin
p2089
I3628
sVscreen
p2090
I1162
sVmoana
p2091
I2244
sVcapitol
p2092
I4238
sVflow
p2093
I2533
sVpluck
p2094
I4588
sVdome
p2095
I2651
sVguitar
p2096
I1263
sVu.s./chicago
p2097
I2750
sVspare
p2098
I4995
sVmoss-cov
p2099
I1498
sVcomo
p2100
I2998
sVspark
p2101
I2871
sVcome
p2102
I228
sVvrai
p2103
I5126
sVblame
p2104
I921
sVrandolph
p2105
I5207
sVxaiver
p2106
I3079
sVberri
p2107
I629
sVtuck
p2108
I3704
sVreluctantli
p2109
I4495
sVetc.
p2110
I4634
sVregion
p2111
I4520
sVquiet
p2112
I1409
sVnearbi
p2113
I1064
sVs
p2114
I112
sVjo
p2115
I2826
sVwhimsic
p2116
I1350
sVsustain
p2117
I5191
sVmani
p2118
I372
sVall-fun
p2119
I4031
sVrawhid
p2120
I3991
sVbackpack
p2121
I4126
sVskyscrap
p2122
I4677
sVamong
p2123
I622
sVloveliest
p2124
I4424
sVcitru
p2125
I4856
sV6:30
p2126
I2884
sVpanick
p2127
I1815
sVcolor
p2128
I1232
sVannual
p2129
I2445
sVpot
p2130
I3209
sVinspir
p2131
I771
sVperiod
p2132
I3596
sVpop
p2133
I782
sV60
p2134
I1786
sVfeatur
p2135
I843
sV65
p2136
I3821
sVblur
p2137
I4560
sVcancel
p2138
I4886
sVtypic
p2139
I2277
sVpod
p2140
I2600
sVco-work
p2141
I3363
sVtub
p2142
I4883
sVboat
p2143
I1995
sValongsid
p2144
I2690
sVinan
p2145
I4653
sVultim
p2146
I608
sVseiz
p2147
I4661
sVcherri
p2148
I3316
sVcoupl
p2149
I237
sVmarc
p2150
I4207
sVstretch
p2151
I4949
sVwest
p2152
I525
sVhardli
p2153
I2230
sVucla
p2154
I792
sVvenic
p2155
I3205
sVmark
p2156
I1405
sVbreath
p2157
I2394
sVoverjoy
p2158
I3173
sVmemento
p2159
I4143
sVfair
p2160
I4155
sVteddi
p2161
I1575
sVsesh
p2162
I3565
sVin-law
p2163
I4174
sVmarkedli
p2164
I4270
sVselflessli
p2165
I2371
sVpost-doctor
p2166
I3884
sVcarv
p2167
I4687
sVfade
p2168
I4833
sVemphas
p2169
I1915
sVmitag
p2170
I3629
sVthousand
p2171
I2274
sVcalligraphi
p2172
I1217
sVheartwarm
p2173
I1766
sVchao
p2174
I4202
sVsweetbar
p2175
I5022
sVloudli
p2176
I3944
sVwake
p2177
I4362
sVsaison
p2178
I1745
sVrememb
p2179
I434
sVdahlia
p2180
I3402
sVtogether-
p2181
I5023
sVandrea
p2182
I4579
sVfl
p2183
I4669
sVintertwin
p2184
I338
sVthose
p2185
I744
sVcountless
p2186
I928
sVsound
p2187
I121
sVstaci
p2188
I3918
sVmyself
p2189
I385
sV3-day
p2190
I3838
sVfamily-styl
p2191
I2814
sVlong-dist
p2192
I693
sVthese
p2193
I1079
sVstereotyp
p2194
I2267
sVvaleri
p2195
I4348
sVcash
p2196
I5012
sVpolli
p2197
I3848
sVfamii
p2198
I4611
sVoutcom
p2199
I4434
sVlunchtim
p2200
I2286
sVcoco
p2201
I3785
sVshopp
p2202
I1309
sVempir
p2203
I3653
sVexot
p2204
I5170
sVcanopi
p2205
I3685
sVcoolest
p2206
I4216
sVemeril
p2207
I3404
sVmayer
p2208
I4406
sVadvantag
p2209
I1657
sVwouldn
p2210
I537
sVclassy.w
p2211
I5228
sVdobi
p2212
I2326
sVdcor
p2213
I5027
sVhenc
p2214
I1486
sVconvinc
p2215
I1053
sVworri
p2216
I2282
sVdestin
p2217
I1683
sVsudden
p2218
I1392
sVwarehous
p2219
I4180
sVeras
p2220
I940
sVsoir
p2221
I3887
sVoutrag
p2222
I2847
sViowa
p2223
I3804
sVshindig
p2224
I3599
sVeveryday
p2225
I267
sVmeasur
p2226
I4586
sVhelmet
p2227
I3711
sVanemon
p2228
I1192
sVemeli
p2229
I4610
sVdevelop
p2230
I1566
sVculinari
p2231
I5090
sVjesu
p2232
I3073
sVetc
p2233
I3465
sVpay
p2234
I2064
sVmedic
p2235
I576
sVbowl
p2236
I922
sVaudienc
p2237
I2887
sVsame
p2238
I439
sVcheck
p2239
I2125
sVproce
p2240
I3526
sVheartbreak
p2241
I3589
sVspeech
p2242
I2481
sVeguiar
p2243
I3666
sVeventu
p2244
I941
sVweek
p2245
I521
sVexhaust
p2246
I3366
sVfinish
p2247
I284
sVbarefoot
p2248
I3569
sVclosest
p2249
I225
sVrainbow
p2250
I5038
sVkelvin
p2251
I3147
sVnest
p2252
I2752
sVassist
p2253
I1839
sVdriver
p2254
I4248
sVsomeon
p2255
I457
sVdirector
p2256
I1933
sVcapabl
p2257
I2524
sValbum
p2258
I4841
sVfruit
p2259
I4861
sVdriven
p2260
I4402
sVzihuatanejo
p2261
I3500
sVimprov
p2262
I4959
sVcrosslin
p2263
I2455
sVbotanica
p2264
I3758
sVjarad
p2265
I3749
sVhandsom
p2266
I1264
sVappropri
p2267
I2832
sVtheater
p2268
I1605
sVablaze.w
p2269
I1623
sVdriftwood
p2270
I3976
sVgrandfath
p2271
I3332
sVcharger
p2272
I1670
sVranch
p2273
I999
sVdarcey
p2274
I5195
sVhustl
p2275
I2019
sVwithout
p2276
I535
sVmunchi
p2277
I3369
sVtenaya
p2278
I2768
sVjoseba
p2279
I4437
sVholli
p2280
I4009
sVgoos
p2281
I3748
sVmodel
p2282
I579
sVwessel
p2283
I3705
sVtransplant
p2284
I2941
sVsummer
p2285
I735
sVoutdoor
p2286
I1294
sVlineag
p2287
I3542
sVabund
p2288
I2029
sVexecut
p2289
I1848
sVfitzgerald
p2290
I3865
sVarmour
p2291
I3381
sVveget
p2292
I5097
sVrest
p2293
I435
sVweekli
p2294
I753
sVcivic
p2295
I2981
sVlavish
p2296
I3873
sVch
p2297
I4502
sVtamara
p2298
I4449
sVaspect
p2299
I2390
sVtouch
p2300
I498
sVflavor
p2301
I1691
sVpalmer
p2302
I3659
sVhayley
p2303
I63
sVhalfway
p2304
I889
sVblow
p2305
I2594
sVindulg
p2306
I2234
sVdeath
p2307
I3084
sVeurop
p2308
I2349
sVcancer
p2309
I2341
sVtim
p2310
I604
sVboulder
p2311
I3855
sVrose
p2312
I111
sVdance-floor
p2313
I3403
sVpupu
p2314
I1738
sVexcept
p2315
I654
sVlittl
p2316
I358
sVpallet
p2317
I2155
sVfuner
p2318
I2685
sV4
p2319
I1783
sVexercis
p2320
I4203
sVguidelin
p2321
I3486
sVstruck
p2322
I3851
sVbread
p2323
I4851
sVregenc
p2324
I3798
sVpill
p2325
I1464
sVross
p2326
I438
sVearli
p2327
I1097
sVjake
p2328
I3169
sVaround
p2329
I542
sVspectacular
p2330
I2008
sVcode
p2331
I4623
sVread
p2332
I105
sVladi
p2333
I2828
sVvirginia
p2334
I2081
sVseren
p2335
I4075
sVbow
p2336
I3098
sVdark
p2337
I2650
sVtopper
p2338
I3234
sVmoh
p2339
I4658
sVenvis
p2340
I876
sVinsist
p2341
I1908
sVmom
p2342
I580
sVbed:
p2343
I1930
sVworld
p2344
I907
sVswatch
p2345
I3324
sVwalk
p2346
I140
sVrebecca
p2347
I4874
sVdare
p2348
I2507
sVanaya
p2349
I4393
sVkatherin
p2350
I2413
sVconsciou
p2351
I4081
sVstranger
p2352
I2754
sVpostcard
p2353
I2159
sVpatrick
p2354
I2420
sVbracelet
p2355
I3973
sVtend
p2356
I4986
sVleek
p2357
I2543
sVhotdog
p2358
I3655
sVrepubl
p2359
I5018
sVmaker
p2360
I3543
sVbaccini
p2361
I4580
sVt
p2362
I477
sVglamor
p2363
I1099
sVcascad
p2364
I1640
sVtower
p2365
I2009
sVtart
p2366
I739
sVmanag
p2367
I2111
sVgroomsman
p2368
I4320
sVoddli
p2369
I2548
sVpaillett
p2370
I4093
sValan
p2371
I4727
sVcabo
p2372
I3196
sVverbal
p2373
I2501
sVdolc
p2374
I5045
sVknock
p2375
I3171
sVimpecc
p2376
I2655
sVgmail
p2377
I3005
sVdraw
p2378
I3807
sVinterlock
p2379
I3931
sVchuck
p2380
I4053
sVcellar
p2381
I2794
sVno-brain
p2382
I985
sVjewelleri
p2383
I3487
sVorganist
p2384
I5073
sV72
p2385
I4816
sVradiat
p2386
I4799
sVbigger
p2387
I2449
sVendeavor
p2388
I3386
sVuw-madison
p2389
I3725
sVfreez
p2390
I2227
sVslice
p2391
I3131
sVcaribbean
p2392
I215
sVmood
p2393
I1726
sVchronicl
p2394
I2575
sVconfirm
p2395
I547
sVnevertheless
p2396
I5110
sVcamp
p2397
I2631
sVsunbath
p2398
I1756
sVnook
p2399
I1626
sVkismet
p2400
I4941
sVmoos
p2401
I4765
sVevolv
p2402
I2579
sVexit
p2403
I5212
sVpoli
p2404
I2622
sVbiess
p2405
I2836
sVunbeliev
p2406
I3995
sVnotabl
p2407
I3878
sVoverli
p2408
I1066
sVknife
p2409
I2239
sVoahu
p2410
I1729
sVparkhil
p2411
I4360
sVeiffel
p2412
I1998
sVtrickier
p2413
I4497
sVunstuffi
p2414
I5133
sVpower
p2415
I2553
sVvivian
p2416
I3828
sVinternship
p2417
I3375
sVtwice-
p2418
I4308
sVgratitud
p2419
I3007
sVfairy-tal
p2420
I4369
sVbroken
p2421
I2210
sVcultiv
p2422
I4625
sVsari
p2423
I4482
sVhectic
p2424
I957
sVthailand
p2425
I3496
sVreferr
p2426
I4568
sVcornerston
p2427
I873
sVundergrad
p2428
I3091
sVthrow
p2429
I811
sVon
p2430
I92
sVstone
p2431
I2072
sVol
p2432
I3266
sVmovemb
p2433
I1939
sVoh
p2434
I3304
sVisland
p2435
I340
sVgregori
p2436
I2924
sVach
p2437
I913
sVoff-beat
p2438
I4445
sVmeal
p2439
I1962
sVissu
p2440
I4265
sVacr
p2441
I3446
sVdegre
p2442
I3059
sVfell
p2443
I279
sVintramur
p2444
I4373
sVstand
p2445
I1024
sVneighbor
p2446
I1727
sVox
p2447
I2549
sVow
p2448
I1385
sVjohnston
p2449
I3114
sVcarribean
p2450
I217
sVmean
p2451
I1148
sVor
p2452
I989
sVroad
p2453
I1743
sVop
p2454
I3985
sVamber
p2455
I1191
sVoutlook
p2456
I401
sVkapp
p2457
I3452
sVmaureen
p2458
I2060
sVelementari
p2459
I4109
sVcity-
p2460
I3345
sVaccid
p2461
I4767
sVhitchhik
p2462
I4262
sVmari
p2463
I3302
sVpre-stamp
p2464
I2160
sVquietli
p2465
I998
sVnowher
p2466
I2334
sVjasper
p2467
I2771
sVstrip
p2468
I1977
sVhark
p2469
I4901
sVnurs
p2470
I4011
sVairlin
p2471
I1425
sVyour
p2472
I1042
sVpamper
p2473
I3594
sVpalm
p2474
I3988
sVweight
p2475
I3183
sVher
p2476
I317
sVarea
p2477
I182
sVaren
p2478
I1427
sVstarl
p2479
I1634
sVthere
p2480
I487
sVhey
p2481
I960
sVstark
p2482
I4802
sVdesert
p2483
I4245
sVstart
p2484
I464
sVfascin
p2485
I3105
sVbougainvillea
p2486
I2083
sVimpromptu
p2487
I3735
sVthorughout
p2488
I492
sVlot
p2489
I851
sVbhldn
p2490
I1663
sVhel
p2491
I3029
sVfrazzl
p2492
I3766
sVpinwheel
p2493
I2848
sVvalley
p2494
I2626
sVhare
p2495
I3794
sVchalkboard
p2496
I4762
sVreus
p2497
I2139
sVbottl
p2498
I1452
sVtimelin
p2499
I745
sVenough
p2500
I39
sVconclud
p2501
I836
sVfancifi
p2502
I4834
sVhairdress
p2503
I4170
sVgodmoth
p2504
I3768
sVamongst
p2505
I5165
sVmeagan
p2506
I2859
sVreliv
p2507
I1508
sVsunris
p2508
I2912
sVspici
p2509
I2265
sVsatur
p2510
I1306
sV40,000
p2511
I4528
sVwhite-
p2512
I3939
sVburn
p2513
I3684
sVmonoton
p2514
I3546
sVbuggi
p2515
I4235
sVwith
p2516
I534
sVhottest
p2517
I2614
sVconclus
p2518
I30
sVspice
p2519
I2977
sVstrawberri
p2520
I733
sVhire
p2521
I322
sVdirti
p2522
I4956
sVjoint
p2523
I3622
sVpossibl
p2524
I415
sVpond
p2525
I3470
sVboudoir
p2526
I4396
sVbucket
p2527
I4006
sVnecessarili
p2528
I1812
sVsteven
p2529
I4335
sVunusu
p2530
I2917
sVheigl
p2531
I3350
sVl.a.
p2532
I5173
sVgrasp
p2533
I1435
sVadriann
p2534
I3293
sVbessi
p2535
I3784
sVpinch
p2536
I4167
sVcustom-mad
p2537
I4367
sVrust
p2538
I2024
sVexpect
p2539
I1958
sVgone
p2540
I3349
sVoverse
p2541
I1941
sVad
p2542
I159
sVcreat
p2543
I931
sVcinema
p2544
I3730
sVcertain
p2545
I2342
sVfrye
p2546
I4741
sVromana
p2547
I4221
sVam
p2548
I760
sVal
p2549
I3753
sVdeep
p2550
I840
sVan
p2551
I171
sVsmash
p2552
I4879
sVas
p2553
I9
sVau
p2554
I3392
sVat
p2555
I11
sVjohnni
p2556
I1909
sVcultur
p2557
I1774
sVgirlfriend
p2558
I296
sVcalifornia-casu
p2559
I5129
sVencompass
p2560
I4626
sVtiffani
p2561
I1758
sVfilm
p2562
I48
sVcream
p2563
I1240
sVyoo
p2564
I3325
sV11
p2565
I1185
sVjingl
p2566
I3280
sVyoga
p2567
I795
sVboutonnier
p2568
I3483
sVidiot
p2569
I4865
sVpurdu
p2570
I3660
sVpaddl
p2571
I1154
sVpuppi
p2572
I2639
sVyogi
p2573
I797
sVslew
p2574
I2910
sVfield
p2575
I1889
sVcleanup
p2576
I3512
sV5
p2577
I1785
sVcopiou
p2578
I4316
sVimmens
p2579
I2763
sVsculptur
p2580
I2587
sVyou
p2581
I539
sVprotea
p2582
I4097
sVarchitectur
p2583
I2646
sVpoor
p2584
I3643
sVgenuin
p2585
I3109
sVcalculu
p2586
I4774
sVsublim
p2587
I2269
sVsymbol
p2588
I3435
sVartist
p2589
I2487
sVdave
p2590
I3806
sVcove
p2591
I3187
sV450
p2592
I4501
sVandrew
p2593
I1788
sVbriefli
p2594
I3273
sVpeak
p2595
I2065
sVburlap
p2596
I3082
sVbrass
p2597
I1211
sVkolbi
p2598
I4492
sVpeac
p2599
I2658
sVpool
p2600
I1114
sVlegal
p2601
I4267
sVhonesti
p2602
I4444
sVtap25
p2603
I3901
sVooxx
p2604
I4158
sVwife
p2605
I2387
sVinvest
p2606
I891
sVgroom
p2607
I668
sVdescript
p2608
I1986
sV4:00
p2609
I5134
sVchristel
p2610
I4241
sVscroll
p2611
I1509
sVtricki
p2612
I1416
sVinevit
p2613
I3520
sVadam
p2614
I1578
sVterranea
p2615
I828
sVmissouri
p2616
I2927
sVescap
p2617
I2221
sVplatter
p2618
I1942
sVrendez-vouz
p2619
I2288
sVpreppi
p2620
I3633
sV175
p2621
I4814
sVrepresent
p2622
I786
sVall
p2623
I4
sVnepal
p2624
I5176
sVforget
p2625
I1905
sVpeacock
p2626
I4749
sVillustr
p2627
I2353
sVbreathtak
p2628
I1793
sVwindi
p2629
I5185
sVemce
p2630
I2458
sVmonth
p2631
I381
sVno-fuss
p2632
I4033
sVconcept
p2633
I1234
sVabil
p2634
I3080
sVparmesan
p2635
I5093
sVdish
p2636
I841
sVfollow
p2637
I286
sVsmp
p2638
I3780
sVchildren
p2639
I222
sVcarpet
p2640
I1795
sVairfar
p2641
I2873
sVcoastlin
p2642
I4441
sVtinsel
p2643
I4987
sVtx
p2644
I904
sVgessel
p2645
I4823
sVdainti
p2646
I2775
sVthursday
p2647
I3557
sVspirit
p2648
I2071
sVto
p2649
I131
sVaaron
p2650
I2514
sVfoster
p2651
I2133
sVhumili
p2652
I3414
sVspain
p2653
I3186
sVscratch
p2654
I3529
sVsmile
p2655
I1015
sVdiscontinu
p2656
I3104
sVmidwest
p2657
I1383
sVnorm
p2658
I583
sVcase
p2659
I3213
sVliter
p2660
I2796
sVthere..
p2661
I3055
sVseventy-f
p2662
I3064
sVsong
p2663
I1316
sVfar
p2664
I946
sVsituat
p2665
I4045
sVocean-blu
p2666
I4189
sVkinfolk
p2667
I2827
sVvera
p2668
I138
sVcandid
p2669
I815
sVfan
p2670
I945
sVscour
p2671
I2715
sVfall
p2672
I275
sVveri
p2673
I510
sVcasa
p2674
I5130
sVticket
p2675
I4338
sVstrang
p2676
I3752
sVstrand
p2677
I3742
sVpueblo
p2678
I3989
sVpersson
p2679
I2709
sVheaven
p2680
I956
sVnorfolk
p2681
I4461
sValma
p2682
I5060
sVharri
p2683
I4489
sVparticular
p2684
I586
sVlist
p2685
I2469
sVmoldova
p2686
I2357
sVsang
p2687
I3289
sVprosciutto
p2688
I2556
sVstumbl
p2689
I2811
sVsmall
p2690
I1312
sVlisa
p2691
I2003
sVsmith
p2692
I3703
sVsveto
p2693
I5245
sValign
p2694
I1374
sV20th
p2695
I2437
sVgang
p2696
I4419
sVflick
p2697
I5198
sVamerican-styl
p2698
I2169
sVten
p2699
I1556
sVbistro
p2700
I2743
sVtea
p2701
I1168
sVpaso
p2702
I991
sVtee
p2703
I2914
sVpast
p2704
I992
sVstrung
p2705
I734
sVpressur
p2706
I2554
sVdesign
p2707
I1138
sVpass
p2708
I2550
sVfurther
p2709
I4689
sVflute
p2710
I3409
sVevan
p2711
I4706
sVcasual
p2712
I870
sVribbon
p2713
I2140
sVlusciou
p2714
I1715
sVexcit
p2715
I268
sVsmore
p2716
I1314
sVwhat
p2717
I527
sVhumpback
p2718
I3190
sVstood
p2719
I466
sVpeg
p2720
I5074
sVportland
p2721
I2367
sVpinterest
p2722
I1649
sVsun
p2723
I1371
sVsum
p2724
I1994
sVworthwhil
p2725
I3852
sVabl
p2726
I866
sVmaid-of-honor
p2727
I3420
sVstoop
p2728
I2317
sVpublic
p2729
I4282
sVmeghani
p2730
I2242
sVversion
p2731
I1980
sVsweetli
p2732
I3204
sVmethod
p2733
I2546
sVburgundi
p2734
I1215
sVmovement
p2735
I2766
sVmystic
p2736
I2657
sVfull
p2737
I561
sVthemselv
p2738
I864
sVrehears
p2739
I3125
sVcalifornia-inspir
p2740
I763
sVpacif
p2741
I5104
sVma
p2742
I1494
sVahi
p2743
I4848
sVvet
p2744
I511
sVelegant/ch
p2745
I3069
sVmule
p2746
I2810
sVwhen-
p2747
I4379
sVranger
p2748
I2767
sVshouldn
p2749
I3826
sVdune
p2750
I4251
sVberkeley
p2751
I628
sVpre-ceremoni
p2752
I3268
sVi.e
p2753
I3870
sVgoodby
p2754
I1401
sVstrong
p2755
I1026
sVlegend
p2756
I688
sVvalu
p2757
I508
sVthrift
p2758
I2719
sVsbb
p2759
I1868
sVsearch
p2760
I1411
sVecstat
p2761
I938
sVnaval
p2762
I4578
sVahead
p2763
I4125
sVcourthous
p2764
I4972
sVriviera
p2765
I4192
sVdevina
p2766
I5140
sVprior
p2767
I1534
sVamount
p2768
I3501
sVw
p2769
I4717
sVpick
p2770
I411
sVaction
p2771
I3814
sVluck
p2772
I4565
sVbrightest
p2773
I2893
sVtrainer
p2774
I4021
sVengrav
p2775
I3517
sVvia
p2776
I2080
sVdepart
p2777
I1243
sV240
p2778
I3662
sVpreternatur
p2779
I2254
sVpicturesqu
p2780
I1816
sVtransit
p2781
I1183
sVwedding-typ
p2782
I1981
sVafrica
p2783
I4078
sVelgin
p2784
I4082
sVmixolog
p2785
I2772
sVyoung
p2786
I2294
sVgoleta
p2787
I3977
sVask
p2788
I10
sVkalindi
p2789
I2764
sVpepperdin
p2790
I2818
sVtomato
p2791
I4758
sVfamili
p2792
I276
sVcarmageddon
p2793
I5218
sVknow-
p2794
I3750
sVmemor
p2795
I577
sVselect
p2796
I727
sVengag
p2797
I259
sVmarbella
p2798
I3673
sVtrish
p2799
I1333
sVeye
p2800
I274
sVsleepov
p2801
I4664
sVdistinct
p2802
I3955
sVliber
p2803
I4142
sVyogawork
p2804
I796
sVtwo
p2805
I502
sVlollipop
p2806
I4744
sVrustic
p2807
I595
sVpearl
p2808
I2366
sVmori
p2809
I3932
sVmorn
p2810
I779
sV6
p2811
I759
sVtaken
p2812
I479
sVraft
p2813
I4475
sVlove-fil
p2814
I852
sVtag
p2815
I3534
sVbeatriz
p2816
I3909
sVplanter
p2817
I3847
sVmore
p2818
I382
sVflat
p2819
I1934
sVdiamond
p2820
I1244
sVdoor
p2821
I2115
sVhundr
p2822
I1268
sVapologet
p2823
I1045
sVpreciou
p2824
I1866
sVmira
p2825
I5153
sVivi
p2826
I1643
sVhimalaya
p2827
I5171
sVflag
p2828
I2405
sVate
p2829
I3294
sVstick
p2830
I1828
sVbroke
p2831
I1904
sVglam
p2832
I297
sVknown
p2833
I894
sVcompani
p2834
I1565
sVkendra
p2835
I3563
sVglad
p2836
I2048
sVtown
p2837
I1330
sVensu
p2838
I2402
sVnone
p2839
I2547
sVmediev
p2840
I4508
sVhour
p2841
I328
sVhous
p2842
I674
sVnicodem
p2843
I4675
sVcharlevoix
p2844
I4680
sVhistori
p2845
I65
sVremain
p2846
I1617
sVnebraska
p2847
I2584
sVnine
p2848
I1179
sVmorgan
p2849
I2245
sVlearn
p2850
I1062
sVgothic
p2851
I4506
sVparasol
p2852
I2021
sVcamelthorn
p2853
I4237
sVstewardess
p2854
I3951
sVritual
p2855
I3155
sVmyspac
p2856
I4694
sVbrown
p2857
I2791
sVpont
p2858
I2007
sVchalleng
p2859
I635
sVchristin
p2860
I2194
sVshare
p2861
I116
sVaccept
p2862
I158
sVsocal
p2863
I787
sVmcgregor
p2864
I3031
sVexplor
p2865
I2489
sVcambridg
p2866
I2284
sVchaney
p2867
I3760
sVsharp
p2868
I3158
sVpong
p2869
I4481
sVstruggl
p2870
I4421
sVdress
p2871
I36
sVf.
p2872
I3864
sVhuge
p2873
I1588
sVtriathlon
p2874
I2603
sVcours
p2875
I238
sVcourt
p2876
I2632
sVconfus
p2877
I3640
sVawkward
p2878
I4559
sVcaption
p2879
I1948
sVrather
p2880
I426
sVanoth
p2881
I176
sVanxiou
p2882
I178
sVhugo
p2883
I1267
sVamerican
p2884
I2168
sVmapl
p2885
I4473
sVbotan
p2886
I2209
sVgianni
p2887
I4784
sVquesadilla
p2888
I2557
sVjasmin
p2889
I3871
sVcuddl
p2890
I801
sVchild-lik
p2891
I4719
sVscienc
p2892
I4411
sVsimpl
p2893
I1310
sVgoat
p2894
I3956
sVunabl
p2895
I3605
sVplant
p2896
I3037
sVinfecti
p2897
I3449
sVchicago-
p2898
I3344
sVtattoo
p2899
I4483
sVmidpoint
p2900
I3674
sVfy
p2901
I3107
sVsneak
p2902
I454
sVreflect
p2903
I721
sV1950
p2904
I4380
sVcatalog
p2905
I2123
sVplane
p2906
I3090
sVpadua
p2907
I2496
sVfloor
p2908
I2132
sVletter-press
p2909
I4787
sVsi
p2910
I5079
sVundergradu
p2911
I504
sVvividli
p2912
I4212
sVbloom
p2913
I1201
sVflutter
p2914
I2936
sVvintag
p2915
I1345
sVa
p2916
I1
sVplanet
p2917
I4446
sVcircumst
p2918
I2683
sVshort
p2919
I117
sVcoax
p2920
I2894
sVorchard
p2921
I1153
sVloud
p2922
I2783
sVdoctor
p2923
I3515
sVgreek-infus
p2924
I1570
sVtrevor
p2925
I2644
sVassign
p2926
I1944
sVfiglewicz
p2927
I817
sVshore
p2928
I1163
sVimageri
p2929
I4693
sVshade
p2930
I1598
sVmedia
p2931
I2331
sVshadi
p2932
I2478
sVdream
p2933
I252
sVvonnett
p2934
I3535
sVpatio
p2935
I1865
sVdepaul
p2936
I3793
sVscaldbeck
p2937
I4463
sVmexican
p2938
I4868
sVhelp
p2939
I316
sVleigh
p2940
I2110
sVpant
p2941
I3933
sVnighter
p2942
I1065
sV18-years-old
p2943
I1651
sVartwork
p2944
I4051
sVsooo
p2945
I1769
sVsoon
p2946
I459
sVauburn
p2947
I184
sVheld
p2948
I958
sVpaper
p2949
I1155
sVthrough
p2950
I494
sVcabana
p2951
I3046
sVreconnect
p2952
I2435
sVedific
p2953
I4037
sVpeppi
p2954
I3197
sVhundertmark
p2955
I1436
sV24
p2956
I1424
sVstyle
p2957
I600
sV20
p2958
I909
sVnordstrom
p2959
I4188
sV22
p2960
I2428
sV23
p2961
I1423
sVpray
p2962
I1408
sVborder
p2963
I3508
sVwilder
p2964
I3567
sV28
p2965
I3042
sValli
p2966
I165
sVmattress
p2967
I1551
sVlate
p2968
I969
sVresort
p2969
I2735
sVopposit
p2970
I3370
sVfamou
p2971
I2000
sVstephen
p2972
I4014
sVmacaroni
p2973
I2784
sVdelici
p2974
I553
sVsoccer
p2975
I1574
sVmight
p2976
I1496
sValter
p2977
I2444
sVnow-mother-in-law
p2978
I3715
sVfool
p2979
I4254
sVtri
p2980
I499
sVgood
p2981
I299
sVreturn
p2982
I1071
sVfood
p2983
I287
sVye
p2984
I538
sVdetour
p2985
I2634
sVspeechless
p2986
I4590
sVcollin
p2987
I4583
sVcharismat
p2988
I4397
sVolivia
p2989
I1110
sVfoot
p2990
I3410
sVrecit
p2991
I1596
sVadventur
p2992
I162
sVbollywood
p2993
I2208
sVgreat-
p2994
I2049
sVbryan
p2995
I1611
sVdocument
p2996
I4562
sVchairlift
p2997
I3571
sVshop
p2998
I2480
sVgilli
p2999
I3219
sVfairi
p3000
I3765
sVsolver
p3001
I4004
sVunlik
p3002
I2278
sVauthent
p3003
I2206
sVbeverli
p3004
I4530
sVbless
p3005
I15
sVdid
p3006
I244
sVachiev
p3007
I867
sValexandr
p3008
I3839
sVnamibia
p3009
I4275
sVcompris
p3010
I642
sVdie
p3011
I2325
sVfound
p3012
I660
sVfriendship
p3013
I1568
sVjoel
p3014
I3087
sVtrailer
p3015
I4915
sVlantern
p3016
I1363
sVsunkissedlov
p3017
I3203
sVmaha
p3018
I5034
sVengland
p3019
I4084
sVchevron
p3020
I1672
sVskydiv
p3021
I1751
sVneedless
p3022
I982
sVfish
p3023
I2701
sVhard
p3024
I311
sVhaley
p3025
I4711
sVidea
p3026
I1269
sVbanquet
p3027
I2629
sVrealli
p3028
I429
sVheavi
p3029
I1361
sVwakefield
p3030
I4573
sVconnect
p3031
I231
sVfist
p3032
I2091
sVtodd
p3033
I2952
sVgeneoh
p3034
I3694
sVfeverishli
p3035
I5048
sVenergi
p3036
I1249
sVbeyond
p3037
I198
sVhartley
p3038
I3260
sVevent
p3039
I265
sVparlor
p3040
I5219
sVrenaiss
p3041
I1630
sVlola
p3042
I5000
sVflower
p3043
I50
sVupbring
p3044
I4895
sVcandlelight
p3045
I3395
sVmiss
p3046
I1285
sVrobert
p3047
I2258
sVsigur
p3048
I5081
sVala
p3049
I3681
sVbreweri
p3050
I2304
sVresearch
p3051
I1002
sVbubbl
p3052
I1947
sVreverend
p3053
I3339
sVgranola
p3054
I3006
sVfountain
p3055
I661
sVhill
p3056
I1489
sV7
p3057
I1880
sVexpans
p3058
I3406
sVprint
p3059
I1158
sVtestifi
p3060
I2602
sVsatin
p3061
I5078
sVmascarpon
p3062
I5017
sVtextil
p3063
I4548
sVdifficulti
p3064
I1797
sVgorgeou
p3065
I770
sVwisconsin
p3066
I612
sVpinstrip
p3067
I4797
sVdirt
p3068
I4018
sVdananda
p3069
I2127
sVfriday
p3070
I3189
sVdiffer
p3071
I246
sVpub
p3072
I1386
sVlobbi
p3073
I4042
sVlifestyl
p3074
I776
sVcooki
p3075
I1237
sVreason
p3076
I430
sVbase
p3077
I1840
sVbeliev
p3078
I1428
sVput
p3079
I422
sVtorticki
p3080
I5246
sVteach
p3081
I3312
sVconcret
p3082
I4173
sVsidewalk
p3083
I1599
sVbash
p3084
I2891
sVcobbleston
p3085
I3103
sVchairs-
p3086
I4551
sVaiasha
p3087
I2740
sVe.e
p3088
I4056
sVthread
p3089
I3020
sVdaisi
p3090
I3859
sVchevari
p3091
I4152
sVwildli
p3092
I4012
sVsuccess
p3093
I2292
sVphotobooth
p3094
I4329
sVround
p3095
I3311
sVgourmet
p3096
I1853
sVperhap
p3097
I1733
sVsooner
p3098
I3751
sVtaho
p3099
I3723
sVtestament
p3100
I3813
sVlifetim
p3101
I356
sVinteract
p3102
I965
sVcopper
p3103
I3514
sVmajor
p3104
I2096
sVsophmor
p3105
I4697
sVsuperbowl
p3106
I3743
sVobviou
p3107
I1573
sVblush
p3108
I1841
sVfeel
p3109
I46
sVexchang
p3110
I44
sVnumber
p3111
I986
sVwell-known
p3112
I1394
sVsmaller
p3113
I1899
sVdone
p3114
I250
sVmrs..
p3115
I2902
sVjazz
p3116
I4672
sVeffortless
p3117
I256
sVflorist
p3118
I2044
sVsoire
p3119
I3600
sVglitter
p3120
I1260
sVfanci
p3121
I2531
sVregret
p3122
I2561
sVsimultan
p3123
I3430
sVsarcast
p3124
I1008
sVguess
p3125
I1058
sVguest
p3126
I60
sVjet
p3127
I4420
sVblossom
p3128
I1562
sVst.
p3129
I1121
sVestoublon
p3130
I2806
sVleast
p3131
I2330
sVwingman
p3132
I3536
sVpaint
p3133
I1296
sVstori
p3134
I123
sVstation
p3135
I2163
sVtapestri
p3136
I2913
sVenclos
p3137
I5099
sVtwenti
p3138
I3604
sVnico
p3139
I3983
sVscheme
p3140
I1922
sVjen
p3141
I2542
sVstore
p3142
I1322
sVlarkin
p3143
I3115
sVnecklac
p3144
I1290
sVfoehrkolb
p3145
I4811
sVluckili
p3146
I1459
sVoption
p3147
I712
sVrelationship
p3148
I433
sVcosta
p3149
I234
sVlk
p3150
I5121
sV10/2007
p3151
I5107
sVokcupid
p3152
I5214
sVhotel
p3153
I1266
sVpark
p3154
I1111
sVpari
p3155
I2006
sVpart
p3156
I404
sVjordan
p3157
I893
sVcufflink
p3158
I5064
sVconsult
p3159
I3400
sVashley
p3160
I1903
sVoctopu
p3161
I4793
sVgrace
p3162
I2778
sVreliev
p3163
I3126
sValbeit
p3164
I2030
sVkind
p3165
I346
sVgrew
p3166
I305
sVuncanni
p3167
I4415
sVchal
p3168
I5137
sVwhenev
p3169
I3820
sVremot
p3170
I2257
sVgotten
p3171
I2094
sVsuperstiti
p3172
I3925
sVadoni
p3173
I4926
sVgrey
p3174
I1854
sVyouth
p3175
I3445
sVbride
p3176
I205
sVgroceri
p3177
I2779
sVbridg
p3178
I833
sVstalk
p3179
I2100
sVdani
p3180
I4343
sVarrang
p3181
I1196
sVtoward
p3182
I1329
sVdanc
p3183
I552
sVdrake
p3184
I2934
sVdana
p3185
I2578
sVenzoani
p3186
I4368
sVrandomli
p3187
I2511
sVbite-s
p3188
I2150
sVindonesia
p3189
I4140
sVbourgeoi
p3190
I3097
sVmarymount
p3191
I373
sVatmospher
p3192
I2519
sVhoneymoon
p3193
I3279
sVantipasti
p3194
I1929
sVbavarian
p3195
I3393
sVgrandios
p3196
I2229
sVcream-color
p3197
I5026
sVpackag
p3198
I3630
sVsteak
p3199
I4881
sVperri
p3200
I5164
sVdedic
p3201
I768
sVkari
p3202
I1710
sVcarli
p3203
I5098
sVsell
p3204
I3129
sVimagin
p3205
I330
sVentireti
p3206
I4057
sVsingapor
p3207
I4907
sVbuilt
p3208
I206
sVlib
p3209
I3221
sVdesol
p3210
I4246
sVlil
p3211
I4326
sVcarlo
p3212
I4930
sVrelentlessli
p3213
I5003
sVhenna
p3214
I2231
sVpham
p3215
I1734
sVsteeli
p3216
I5083
sVclick
p3217
I2855
sVlit
p3218
I4220
sValso
p3219
I621
sVbourbon
p3220
I4770
sVlip
p3221
I1105
sVbuild
p3222
I546
sVshelbi
p3223
I3054
sV4:15
p3224
I4226
sVveronika
p3225
I5248
sVbanjo
p3226
I2692
sVliz
p3227
I4010
sVrelief
p3228
I3175
sVeharmoni
p3229
I2897
sVplay
p3230
I589
sVetsi
p3231
I5197
sVkae
p3232
I4156
sVunsur
p3233
I1037
sVonstag
p3234
I3880
sVkai
p3235
I2235
sVchoos
p3236
I640
sVreach
p3237
I2869
sVmixtur
p3238
I1725
sVlavend
p3239
I2095
sVcinematograph
p3240
I1996
sVmost
p3241
I383
sV75
p3242
I4363
sVcharm
p3243
I2574
sVplan
p3244
I100
sVmoss
p3245
I1286
sVprestigi
p3246
I590
sVsuitcas
p3247
I1370
sVmatch.com
p3248
I1961
sVhands-on
p3249
I2537
sVfoyer
p3250
I4648
sVoyster
p3251
I2363
sVamaz
p3252
I170
sVkc
p3253
I4891
sVbride..daniel
p3254
I4639
sVbride-in-plan
p3255
I4929
sV5-6
p3256
I4709
sVomaha
p3257
I2585
sVwhoopi
p3258
I4342
sVcovey
p3259
I2958
sVclear
p3260
I1430
sVmaier
p3261
I3301
sVcover
p3262
I1480
sVkm
p3263
I2238
sVcoven
p3264
I2088
sVaerialist
p3265
I4392
sVthree-month
p3266
I3379
sVclean
p3267
I1398
sVresembl
p3268
I1469
sVwarmli
p3269
I3443
sVbarrel
p3270
I5113
sVlatest
p3271
I4540
sVblend
p3272
I3326
sVawesom
p3273
I543
sVsoon-to-b
p3274
I3781
sVtaxi
p3275
I3744
sVcarefre
p3276
I4920
sVgolf
p3277
I2461
sVridicul
p3278
I3456
sVletterpress
p3279
I1278
sVrobino
p3280
I2586
sVtentacl
p3281
I4805
sVmidwestern
p3282
I2583
sVburrata
p3283
I4853
sVsession
p3284
I1075
sVparticularli
p3285
I2156
sVstalker
p3286
I1023
sVfireplac
p3287
I1851
sVnaomi
p3288
I5051
sVfont
p3289
I1254
sVfine
p3290
I658
sVfind
p3291
I948
sVcaruso
p3292
I4355
sVimpact
p3293
I2412
sVgiant
p3294
I2654
sVrandi
p3295
I4494
sVpatisseri
p3296
I3632
sVpretti
p3297
I1442
sVdevin
p3298
I5196
sVkalen
p3299
I4041
sVcondor
p3300
I2751
sVruin
p3301
I2315
sVwriter
p3302
I5146
sVsolut
p3303
I3849
sV1914
p3304
I3960
sVfellow
p3305
I4488
sVclipboard
p3306
I4775
sVkeepsak
p3307
I4175
sV8
p3308
I912
sVgroomswoman
p3309
I4977
sVkramer
p3310
I3980
sVdiscuss
p3311
I4430
sVcultural-ti
p3312
I4615
sVhip
p3313
I804
sVremedi
p3314
I1468
sVweve
p3315
I2604
sVhit
p3316
I1525
sVpalett
p3317
I1531
sVking
p3318
I4157
sVluke
p3319
I4028
sVsecular
p3320
I2565
sVexpress
p3321
I655
sVcuriou
p3322
I3309
sVfendi
p3323
I5066
sVswing
p3324
I738
sVblank
p3325
I868
sVnativ
p3326
I4277
sVpayphon
p3327
I3595
sVb
p3328
I3462
sVbreast
p3329
I4234
sVstrum
p3330
I1555
sVreenter
p3331
I2968
sVsilk
p3332
I2070
sVsunni
p3333
I736
sVhim
p3334
I321
sVrestart
p3335
I2905
sVsilo
p3336
I5040
sVmonogram
p3337
I3423
sVslivovic
p3338
I5019
sVdifferent-aft
p3339
I3347
sVcatcher
p3340
I1884
sVpetrol-blu
p3341
I5075
sVcorsag
p3342
I4898
sVbeach-inspir
p3343
I1661
sVtimeless
p3344
I1870
sVantiqu
p3345
I1194
sVfiji
p3346
I3485
sVfamily-mad
p3347
I3690
sVbrush
p3348
I4998
sVcommon
p3349
I927
sVswitzerland
p3350
I3018
sVvincent
p3351
I3799
sVcri
p3352
I800
sVwrote
p3353
I1608
sVcole
p3354
I3791
sVseventeen
p3355
I4662
sVset
p3356
I114
sVart
p3357
I623
sVsep
p3358
I1824
sVoverwhelm
p3359
I403
sVmatteo
p3360
I4601
sVjade
p3361
I1271
sVheavili
p3362
I4432
sVvine
p3363
I2627
sVeverest
p3364
I5169
sVsex
p3365
I1443
sVsee
p3366
I445
sVb-17
p3367
I3503
sVsignifi
p3368
I1601
sVare
p3369
I181
sVsea
p3370
I2068
sVlisbon
p3371
I3282
sVbari
p3372
I1090
sVclose
p3373
I886
sV11th
p3374
I2725
sVarm
p3375
I3162
sV2.5
p3376
I2319
sVlee
p3377
I1277
sVseal
p3378
I4905
sVproject
p3379
I2555
sVchicago-area
p3380
I2695
sVspiritu
p3381
I2568
sVexpert
p3382
I1849
sVverducci
p3383
I4341
sVtrumpet
p3384
I3889
sVsometh
p3385
I458
sVgrandmoth
p3386
I1261
sVparticip
p3387
I1366
sVklub
p3388
I4186
sValqueria
p3389
I4514
sVbohemian
p3390
I1203
sVeight-year
p3391
I2698
sVmismatch
p3392
I2899
sVfreshman
p3393
I2795
sVexperi
p3394
I269
sVfortuit
p3395
I3259
sVblink
p3396
I4394
sVcompliment
p3397
I1677
sValtern
p3398
I1189
sVsignatur
p3399
I731
sVikat
p3400
I1589
sVappreci
p3401
I180
sVnumer
p3402
I987
sVsold
p3403
I1315
sVone-in-a-million
p3404
I3550
sVoutfit
p3405
I1648
sVwreath
p3406
I4300
sVspray
p3407
I1320
sVsucceed
p3408
I4448
sVkuhnen
p3409
I5203
sVpepsi
p3410
I3338
sVlightheart
p3411
I2986
sVsolv
p3412
I4413
sVnervou
p3413
I386
sVpurpl
p3414
I1595
sVpopul
p3415
I3121
sVcenterpiec
p3416
I2972
sVboth
p3417
I17
sVfishtrap
p3418
I4957
sVlast
p3419
I350
sVthanksgiv
p3420
I4888
sVsharla
p3421
I5124
sVpete
p3422
I2300
sValon
p3423
I167
sVnatali
p3424
I3966
sVforeign
p3425
I1775
sVentertain
p3426
I3085
sVchuppah
p3427
I1229
sVlong-term
p3428
I777
sVlovin
p3429
I4389
sVwhole
p3430
I532
sVstoplight
p3431
I2513
sVcharif
p3432
I4503
sVload
p3433
I4090
sVgypsi
p3434
I1142
sVbongo
p3435
I1791
sVsimpli
p3436
I452
sVdistress
p3437
I3830
sVpoint
p3438
I994
sVsweet
p3439
I474
sVloan
p3440
I3523
sVconsumm
p3441
I1845
sVamerica
p3442
I3941
sVrefurbish
p3443
I4462
sVstrategi
p3444
I5216
sVdancer
p3445
I3860
sVsuprem
p3446
I4292
sVsuppli
p3447
I5181
sVchurch
p3448
I1796
sVvessel
p3449
I1344
sVcomput
p3450
I3792
sVthroughout
p3451
I495
sVmission
p3452
I2356
sVgaribay
p3453
I1693
sVbelt
p3454
I1397
sVblog
p3455
I3206
sVrevival-
p3456
I3229
sVduo
p3457
I1763
sVstamp
p3458
I3532
sVfifteen
p3459
I2224
sVdub
p3460
I2174
sVoverlook
p3461
I2136
sVdue
p3462
I2866
sVthoroughli
p3463
I3436
sVimu
p3464
I5069
sVwhom
p3465
I754
sVsecret
p3466
I1823
sVireland
p3467
I2504
sVmake-up
p3468
I1404
sVlight-heart
p3469
I850
sVthreaten
p3470
I603
sVnicol
p3471
I2679
sVnapl
p3472
I3014
sVchandler
p3473
I3962
sVwoke
p3474
I2918
sVpm
p3475
I2022
sVanthoni
p3476
I2486
sValto
p3477
I4105
sVsweetheart
p3478
I476
sVflight
p3479
I4670
sVphenomen
p3480
I4567
sVgay
p3481
I4256
sVfire
p3482
I2153
sVleafi
p3483
I1644
sVimag
p3484
I2493
sVreunit
p3485
I2798
sVremark
p3486
I2423
sVsoftest
p3487
I4571
sVcoordin
p3488
I872
sVgal
p3489
I3562
sVunderstand
p3490
I2191
sVwhitney
p3491
I3444
sVdemand
p3492
I2041
sVinsan
p3493
I3191
sVhonolulu
p3494
I4147
sVaileen
p3495
I3853
sVstork
p3496
I5020
sVgeorgia
p3497
I3388
sVlook
p3498
I364
sVflowerlif
p3499
I5200
sVsolid
p3500
I4696
sVdisrupt
p3501
I4843
sVstraight
p3502
I2290
sVcanadian
p3503
I2727
sVgem
p3504
I3331
sVhistor
p3505
I1102
sVj.crew
p3506
I1708
sVreliabl
p3507
I4003
sVwhile
p3508
I530
sVkara
p3509
I5119
sVmini-dessert
p3510
I5152
sVsmart
p3511
I1535
sVabov
p3512
I155
sVfun
p3513
I54
sVoverly-styl
p3514
I2020
sVleland
p3515
I4682
sVeveryon
p3516
I42
sVloop
p3517
I5204
sVpack
p3518
I2708
sVreal
p3519
I427
sVnlc
p3520
I3984
sV30
p3521
I4117
sVrap
p3522
I4332
sVreadi
p3523
I593
sVtechnolog
p3524
I2272
sVbluegrass
p3525
I2012
sVnewlyw
p3526
I854
sVjorg
p3527
I4518
sVvow
p3528
I752
sVfrantic
p3529
I3106
sVskype
p3530
I1973
sVfirstli
p3531
I5231
sVillinoi
p3532
I1559
sVrib
p3533
I5095
sVfocuslab
p3534
I3185
sVchase
p3535
I1950
sVcoldston
p3536
I3921
sVdecor
p3537
I1357
sVfarmstead
p3538
I4763
sVshirt
p3539
I4287
sVmadli
p3540
I369
sVgrant
p3541
I4259
sVlukla
p3542
I5174
sVbelong
p3543
I2693
sVbrowni
p3544
I4314
sVfunni
p3545
I1523
sVlengthi
p3546
I4673
sVitali
p3547
I892
sVsign-in
p3548
I1470
sVgrand
p3549
I59
sV9
p3550
I1186
sVterrac
p3551
I1635
sVvibranc
p3552
I3499
sVbasti
p3553
I2874
sVhallway
p3554
I954
sVflurri
p3555
I4937
sVflowergirl
p3556
I1692
sVsnail
p3557
I4195
sVlie
p3558
I1938
sVjimena
p3559
I4517
sVbanter
p3560
I1579
sVpainless
p3561
I1180
sVhiiiiiiiii
p3562
I4702
sVcelebratori
p3563
I2525
sVamazingli
p3564
I5006
sVestat
p3565
I4534
sVdusti
p3566
I1246
sVmoment
p3567
I85
sVmoniqu
p3568
I4792
sVbirch
p3569
I1199
sVdine
p3570
I2308
sVwherev
p3571
I1450
sVweird
p3572
I1040
sVfocal
p3573
I4039
sVrecent
p3574
I431
sVplate
p3575
I1735
sVtask
p3576
I2076
sVampl
p3577
I2203
sVeleg
p3578
I875
sVkelli
p3579
I4491
sVentri
p3580
I1957
sVchemistri
p3581
I636
sVspent
p3582
I1020
sVphil
p3583
I1068
sVperson
p3584
I408
sVcheer
p3585
I1133
sVchees
p3586
I1227
sVexpens
p3587
I4456
sVelev
p3588
I3862
sVswiss
p3589
I3017
sVcedar
p3590
I2793
sVdistrict
p3591
I2309
sVtopiari
p3592
I2801
sVtast
p3593
I740
sVspend
p3594
I1019
sV2007-it
p3595
I3341
sVpropos
p3596
I420
sVroaster
p3597
I1969
sVcajol
p3598
I3253
sVconstruct
p3599
I2982
sVburden
p3600
I3999
sVmultitud
p3601
I3547
sVcamlon
p3602
I3954
sVdarl
p3603
I2746
sV1910
p3604
I4181
sVcollabor
p3605
I2398
sVmarque
p3606
I4556
sVshape
p3607
I1747
sVwhite/cream
p3608
I5128
sVbaptiz
p3609
I5112
sVthorough
p3610
I4549
sVsam
p3611
I4409
sVbehind
p3612
I920
sVregardless
p3613
I4149
sVnorthern
p3614
I1921
sVforrest
p3615
I3693
sVwine-inspir
p3616
I4619
sVnetwork
p3617
I5036
sVpriorit
p3618
I2383
sVindepend
p3619
I3712
sVcut
p3620
I1241
sVweek-long
p3621
I4172
sVmandap
p3622
I4746
sVcup
p3623
I2527
sVpier
p3624
I4209
sVcue
p3625
I3688
sVmerchantil
p3626
I853
sVsydney
p3627
I2994
sVcourtney
p3628
I874
sVloos
p3629
I2415
sVinput
p3630
I2464
sVbridal
p3631
I19
sVbuttercream
p3632
I5148
sVbrainstorm
p3633
I1048
sV...
p3634
I2929
sVaustralia
p3635
I2995
sVvendor
p3636
I509
sVc.
p3637
I2997
sVbig
p3638
I199
sVpre-school
p3639
I2849
sVpig
p3640
I4871
sVsapphir
p3641
I2563
sVinjur
p3642
I4205
sVroommat
p3643
I1004
sVapropo
p3644
I4969
sVwiser
p3645
I533
sVbrit
p3646
I1932
sVresid
p3647
I2161
sVbit
p3648
I544
sVjerker
p3649
I2051
sVformal
p3650
I1890
sVnamib-naukluft
p3651
I4274
sVsignag
p3652
I2424
sVbout
p3653
I1207
sVd
p3654
I933
sVherzog
p3655
I4060
sVsignal
p3656
I3646
sVclay
p3657
I4477
sVevigan
p3658
I3733
sVcheval
p3659
I5194
sVcrete
p3660
I4161
sVmanifest
p3661
I4943
sVcollect
p3662
I1231
sVarthur
p3663
I2389
sVpresidenti
p3664
I5154
sVyorker
p3665
I4442
sVcorpor
p3666
I2087
sVpopular
p3667
I1441
sVcruis
p3668
I1054
sVweiner
p3669
I3241
sVunitarian
p3670
I5159
sVsequin
p3671
I4101
sVexcel
p3672
I4058
sVencount
p3673
I1955
sVsketch
p3674
I4546
sVtwenty-thre
p3675
I4950
sVoften
p3676
I988
sVloudbyt
p3677
I80
sVmovie-worthi
p3678
I2846
sVspring
p3679
I1022
sVb.
p3680
I4684
sVclose-knit
p3681
I4128
sVsome
p3682
I455
sVback
p3683
I187
sVunderstood
p3684
I505
sVstrongest
p3685
I468
sVpassag
p3686
I4280
sVsampl
p3687
I3471
sVfabric
p3688
I2130
sVsight
p3689
I599
sVmirror
p3690
I3422
sVwonderland
p3691
I3746
sVmustang
p3692
I2618
sVsurpris
p3693
I473
sVpale
p3694
I3846
sVinsepar
p3695
I1706
sVbrent
p3696
I1212
sVbronzon
p3697
I633
sVsusi
p3698
I5244
sVantler
p3699
I4454
sVchocol
p3700
I1228
sVjokingli
p3701
I3478
sVcharg
p3702
I3101
sVpew
p3703
I4557
sVcomplementari
p3704
I4971
sVcast
p3705
I4416
sVgild
p3706
I1258
sVprom
p3707
I3492
sVcontortionist
p3708
I4400
sVlarg
p3709
I684
sVjewelri
p3710
I2937
sVanni
p3711
I1193
sVhuckleberri
p3712
I5049
sVlark
p3713
I3469
sVveterinari
p3714
I512
sVnovelti
p3715
I3225
sVpea
p3716
I2599
sVanna
p3717
I175
sVeither
p3718
I1954
sVmachin
p3719
I4133
sVbe
p3720
I13
sVobject
p3721
I2188
sVrun
p3722
I1305
sVmungo
p3723
I1499
sV300
p3724
I0
sVsalmon
p3725
I4876
sVmartin
p3726
I2241
sVrug
p3727
I1304
sVchart
p3728
I3686
sVyamasaki
p3729
I3041
sVstep
p3730
I732
sVsqueez
p3731
I1165
sVsanta
p3732
I440
sValleyway
p3733
I2303
sVconcoct
p3734
I4857
sVcarol
p3735
I3274
sVabroad
p3736
I882
sVshine
p3737
I4917
sVfaith
p3738
I1614
sVjealou
p3739
I4655
sVconrad
p3740
I4734
sVpatrik
p3741
I5238
sVweeklong
p3742
I4965
sVwore
p3743
I758
sVreappear
p3744
I2601
sVmateri
p3745
I2544
sVcomplimentari
p3746
I1233
sVwineglass
p3747
I4299
sVone-should
p3748
I4946
sVmrs.
p3749
I1151
sVpage
p3750
I3818
sVdrama
p3751
I3385
sVperk
p3752
I4095
sVheel
p3753
I3111
sVstuart
p3754
I4196
sVquintessenti
p3755
I5155
sVsaniti
p3756
I4846
sVmonochromat
p3757
I3876
sVauditorium
p3758
I2648
sVblock
p3759
I631
sVcharl
p3760
I2694
sVfern
p3761
I4085
sVlast-minut
p3762
I3488
sVcolorado
p3763
I1051
sVtrot
p3764
I4759
sVhometown
p3765
I66
sVinto
p3766
I75
sVwithin
p3767
I1351
sVahwahne
p3768
I2756
sVdame
p3769
I3067
sVmomma
p3770
I2358
sVjimmi
p3771
I2509
sVunbeknownst
p3772
I1833
sVensur
p3773
I1455
sVupdat
p3774
I4124
sVannounc
p3775
I8
sVunderst
p3776
I1873
sVeverybodi
p3777
I3808
sVautumn-them
p3778
I1516
sVswiftli
p3779
I2119
sVinstitut
p3780
I569
sVget-away
p3781
I1171
sVcaptur
p3782
I24
sVquestion
p3783
I784
sVfast
p3784
I947
sVcustom
p3785
I2399
sVcamera
p3786
I1843
sVinclud
p3787
I73
sVsuit
p3788
I1900
sVforward
p3789
I290
sVetch
p3790
I3518
sVchilli
p3791
I2305
sVlexi
p3792
I354
sVtwitter
p3793
I4160
sVstare
p3794
I4020
sVzealand
p3795
I3292
sVgroomsmen
p3796
I1358
sVhimself
p3797
I961
sVarchdal
p3798
I5147
sVrepeatedli
p3799
I3428
sVhawaiian
p3800
I1699
sVjewish
p3801
I2857
sVfrost
p3802
I1257
sVpastor
p3803
I98
sVingredi
p3804
I1705
sVglamour
p3805
I1776
sVcloth
p3806
I2307
sVperman
p3807
I4096
sVstatuesqu
p3808
I2588
sVtranslat
p3809
I4726
sVreef
p3810
I4191
sVsick
p3811
I3494
sVline
p3812
I1146
sVmurphi
p3813
I2656
sVpain
p3814
I2687
sVjunior
p3815
I344
sVpenguin
p3816
I406
sVhobbi
p3817
I4785
sV.i
p3818
I4698
sVjonathan
p3819
I3769
sVconsist
p3820
I4215
sVuw
p3821
I4116
sVup
p3822
I136
sVus
p3823
I137
sVerica
p3824
I1765
sVintim
p3825
I772
sVmorocco
p3826
I3675
sVuk
p3827
I2293
sVhighlight
p3828
I3413
sVz
p3829
I2082
sVsimilar
p3830
I1750
sVfamily-ori
p3831
I2856
sVuc
p3832
I749
sVbell
p3833
I3854
sVroquero
p3834
I4521
sVcathol
p3835
I2430
sVchad
p3836
I1844
sVmass-produc
p3837
I1720
sVlaurel
p3838
I4612
sVcleveland
p3839
I4451
sVhaunt
p3840
I2116
sVdoesn
p3841
I3763
sVrepres
p3842
I2797
sVtammer
p3843
I2979
sVdr.
p3844
I5211
sVseptemb
p3845
I3598
sVdream-team
p3846
I2921
sVchat
p3847
I923
sVguarante
p3848
I4452
sVcarmen
p3849
I1049
sVhospit
p3850
I3869
sVspontan
p3851
I901
sVshipwreck
p3852
I3159
sVecho
p3853
I4934
sVset-up
p3854
I4390
sVprofil
p3855
I1966
sVlemon
p3856
I4325
sVgranada
p3857
I3669
sVpeach
p3858
I1532
sVtuft
p3859
I3439
sVpronounc
p3860
I4606
sVtitl
p3861
I2853
sVtara
p3862
I4376
sVpat
p3863
I4171
sVhandmad
p3864
I1143
sVabreo
p3865
I5088
sVexud
p3866
I559
sVnick
p3867
I1646
sVraini
p3868
I3779
sVstatement
p3869
I3160
sVtransport
p3870
I1448
sValtar
p3871
I2516
sVswirl
p3872
I4293
sVgro
p3873
I1484
sVoskar
p3874
I3947
sVmanhattan
p3875
I2118
sVasymmetr
p3876
I1197
sVnice
p3877
I984
sVpetal
p3878
I4604
sVjojo
p3879
I4323
sVindoor/outdoor
p3880
I3061
sVappet
p3881
I2148
sVmustard
p3882
I1288
sVsmitten
p3883
I2162
sVbohemian/vintag
p3884
I1883
sVkt
p3885
I1858
sVathen
p3886
I1790
sVshuyi
p3887
I4522
sVwilliam
p3888
I2427
sVmeaning
p3889
I2185
sVcater
p3890
I634
sVmeadowood
p3891
I4352
sVlent
p3892
I3453
sVwatteau
p3893
I2787
sVclue
p3894
I4699
sVspringsteen
p3895
I4030
sVguestbook
p3896
I3817
sVpinpoint
p3897
I3174
sVago
p3898
I3
sVcasey
p3899
I4909
sVland
p3900
I3281
sVhappier
p3901
I3467
sVwendi
p3902
I4614
sVshannon
p3903
I4353
sVage
p3904
I2919
sVmater
p3905
I5072
sVton
p3906
I4572
sVolivo
p3907
I2097
sVpotteri
p3908
I2137
sV2003
p3909
I2788
sVdepth
p3910
I242
sV2006
p3911
I1372
sVdot
p3912
I2652
sVoverton
p3913
I4708
sV2005
p3914
I4527
sVfresh
p3915
I1256
sV2008
p3916
I865
sV2009
p3917
I1771
sVconvert
p3918
I4595
sVhello
p3919
I959
sVminoru
p3920
I3033
sVsonoma
p3921
I3306
sVjason
p3922
I1273
sVedg
p3923
I2457
sVgocco
p3924
I4535
sVgp
p3925
I2228
sVhint
p3926
I2780
sVsteve
p3927
I861
sVkati
p3928
I345
sVrenown
p3929
I4608
sVlandscap
p3930
I2135
sVlend
p3931
I5132
sVfocu
p3932
I1852
sVgo
p3933
I298
sVroadsid
p3934
I4346
sVanniversari
p3935
I2885
sVmoon
p3936
I1919
sVkate
p3937
I2494
sVtoni
p3938
I3800
sVchristchurch
p3939
I4910
sVprivat
p3940
I1629
sVsimon
p3941
I4609
sVlynsay
p3942
I1461
sVgold
p3943
I665
sVpeanut
p3944
I3337
sVaria
p3945
I1838
sVfriendli
p3946
I1916
sVsend
p3947
I857
sVbum
p3948
I4686
sVmoor
p3949
I3697
sVbecam
p3950
I799
sVextraordinari
p3951
I3003
sVsens
p3952
I447
sVmaryland
p3953
I4576
sVsent
p3954
I1992
sVinject
p3955
I4322
sVedna
p3956
I2611
sVprobe
p3957
I2384
sVproctor
p3958
I1867
sVgarden
p3959
I844
sVfynbo
p3960
I4088
sVdisclos
p3961
I1987
sVdessert
p3962
I644
sVvld
p3963
I3039
sVdepauw
p3964
I4818
sVwave
p3965
I3578
sVelectron
p3966
I1686
sVfacebook
p3967
I1801
sVtambourin
p3968
I3637
sVdisast
p3969
I4069
sVoutdoorsi
p3970
I1894
sVtavola
p3971
I2425
sVrecip
p3972
I719
sVnorthwestern
p3973
I4121
sVpriestess
p3974
I4750
sVtran
p3975
I3790
sVmagic
p3976
I1176
sVharbor
p3977
I4371
sVcomplic
p3978
I4642
sVportraitur
p3979
I715
sVshock
p3980
I1012
sVmichael
p3981
I84
sVeve
p3982
I2530
sVryan
p3983
I1181
sVkansa
p3984
I1548
sVqueen
p3985
I4098
sVridg
p3986
I2023
sVhairstyl
p3987
I3145
sVrace
p3988
I2928
sVhemispher
p3989
I5220
sVferri
p3990
I3027
sVinaugur
p3991
I5151
sVmarri
p3992
I696
sVrefer
p3993
I1898
sVbarbara
p3994
I190
sVrefresh
p3995
I4211
sVjoey
p3996
I4000
sVpleas
p3997
I1465
sVstairway
p3998
I2663
sVnestl
p3999
I707
sVfortun
p4000
I2922
sVcarter
p4001
I1563
sVmeticul
p4002
I699
sVsenorita
p4003
I3493
sVnatur
p4004
I706
sVmediterranean
p4005
I1572
sVprocession
p4006
I103
sVmural
p4007
I4981
sVsoul
p4008
I460
sVjump
p4009
I2732
sVfold
p4010
I4781
sVusher
p4011
I4667
sVvideo
p4012
I514
sVbooth
p4013
I1945
sVmurat
p4014
I4724
sVhaiku
p4015
I2962
sVlanguor
p4016
I683
sVgarden-lik
p4017
I664
sVodd
p4018
I3265
sVode
p4019
I1439
sVfolk
p4020
I2017
sVmint-color
p4021
I1724
sVthat-
p4022
I4838
sVtwine
p4023
I2426
sVclassic-yet-totally-cool
p4024
I2744
sVcompar
p4025
I2214
sVchicago
p4026
I834
sVfianc
p4027
I281
sV2-9
p4028
I4889
sVsangria
p4029
I4569
sVaffin
p4030
I1658
sVaccess
p4031
I2198
sVsixti
p4032
I3610
sVindian
p4033
I2232
sVcap
p4034
I4581
sVnorskedalen
p4035
I1503
sVbird
p4036
I2521
sVsteel
p4037
I4678
sVwhatev
p4038
I4989
sVhungarian
p4039
I4263
sVhour-and-a-half-long
p4040
I673
sVancient
p4041
I4591
sVperimet
p4042
I2157
sVled
p4043
I774
sVchose
p4044
I816
sVdespit
p4045
I33
sVsexi
p4046
I4412
sVbrooch
p4047
I3927
sVlen
p4048
I4866
sVleo
p4049
I775
sVsceneri
p4050
I442
sVpump
p4051
I4798
sVbachelor
p4052
I5025
sVlet
p4053
I972
sVcozi
p4054
I1136
sVcab
p4055
I5136
sVsing
p4056
I2908
sVlounge-zon
p4057
I1364
sVbecom
p4058
I193
sVwin
p4059
I1577
sVsinc
p4060
I809
sVchip/sugar
p4061
I4315
sVbakersfield
p4062
I5166
sVgreat
p4063
I304
sVpurpos
p4064
I4589
sVtalent
p4065
I2570
sVconvers
p4066
I232
sVbench
p4067
I4550
sVlitchfield
p4068
I3770
sVchant
p4069
I3396
sV31
p4070
I4815
sVlarger
p4071
I3074
sVvacat
p4072
I1038
sVpoignant
p4073
I1990
sVnikha
p4074
I4922
sVmilwauke
p4075
I1384
sVmambo
p4076
I3736
sVkristin
p4077
I4813
sVcafe
p4078
I5108
sVkathmandu
p4079
I5172
sVopinion
p4080
I2474
sVchang
p4081
I221
sVhonor
p4082
I1457
sVchanc
p4083
I220
sVmaui
p4084
I4613
sVclaim
p4085
I5109
sVappli
p4086
I179
sVliqueur
p4087
I5016
sVemot
p4088
I1432
sVfoundat
p4089
I951
sVglamour/vintag
p4090
I3348
sVran
p4091
I1819
sVwit
p4092
I3607
sVkristina
p4093
I5120
sVmotor
p4094
I1287
sVduck
p4095
I1096
sVfavourit
p4096
I4911
sVsemi-tru
p4097
I3269
sVgreg
p4098
I1524
sVhardt
p4099
I4978
sVcloud
p4100
I2213
sVencapsul
p4101
I3463
sVuse
p4102
I1338
sVfrom
p4103
I53
sVdrop-
p4104
I4552
sVcommun
p4105
I2343
sVmad-man
p4106
I1403
sVdoubl
p4107
I3710
sVsevilla
p4108
I3680
sVbush
p4109
I814
sVnext
p4110
I708
sVwebsit
p4111
I1184
sVfew
p4112
I280
sVdoubt
p4113
I556
sVcoldplay
p4114
I4624
sVoeuvr
p4115
I4602
sVconley
p4116
I766
sVlipgloss
p4117
I1645
sVcommut
p4118
I2948
sVremaind
p4119
I3427
sVsort
p4120
I1974
sVcharcoal
p4121
I3315
sVdash
p4122
I3384
sV1/2
p4123
I2883
sVnye
p4124
I5122
sVporch
p4125
I3227
sVbabi
p4126
I2789
sVmusician
p4127
I3223
sVimpress
p4128
I1060
sVsister
p4129
I1412
sVhandcraft
p4130
I670
sVchariti
p4131
I1226
sVsore
p4132
I1017
sVtrain
p4133
I790
sVfabyan
p4134
I2700
sVtempl
p4135
I4046
sVrabbit
p4136
I4062
sVrecount
p4137
I3425
sVcentral
p4138
I3709
sVflawless
p4139
I2761
sVbritish/european
p4140
I5063
sVwomen
p4141
I1537
sVannoy
p4142
I4484
sVtopic
p4143
I1447
sVaccount
p4144
I1927
sVrice
p4145
I4752
sVsalad
p4146
I3231
sVdrawer
p4147
I4431
sVpout
p4148
I808
sVknowingli
p4149
I3943
sVride
p4150
I723
sVfoggiest
p4151
I3318
sVcritic
p4152
I2040
sVice-
p4153
I2285
sVrecession
p4154
I107
sVcachaca
p4155
I1665
sVwildest
p4156
I3045
sVobvious
p4157
I1543
sVthin
p4158
I3497
sVmaya
p4159
I3917
sVof
p4160
I90
sVmeet
p4161
I378
sVpouf
p4162
I4873
sVgrin
p4163
I3898
sVscatter
p4164
I1970
sVthie
p4165
I2077
sVproof
p4166
I3701
sVbittersweet
p4167
I2682
sVsri
p4168
I3340
sVdo
p4169
I35
sVprocess
p4170
I418
sVlock
p4171
I362
sVbonni
p4172
I3251
sVrode
p4173
I4630
sVspringtim
p4174
I1633
sVabbeydal
p4175
I4364
sVhigh
p4176
I320
sVeckhardt
p4177
I5229
sVneruda
p4178
I2878
sVtenni
p4179
I4894
sVbend
p4180
I4991
sVslip
p4181
I1013
sVagenc
p4182
I1928
sVsought
p4183
I120
sVonlin
p4184
I397
sVshrimp
p4185
I2566
sVskirt
p4186
I2939
sVludacri
p4187
I4745
sVeverywher
p4188
I2840
sVfootag
p4189
I4597
sVnext-door
p4190
I2359
sVeverli
p4191
I1482
sVgrape
p4192
I5118
sVsit
p4193
I1512
sVvibe
p4194
I513
sVstole
p4195
I3137
sVsix
p4196
I900
sVrodeo
p4197
I4893
sVclement
p4198
I3164
sVgeorg
p4199
I4912
sVdelay
p4200
I3903
sVbrian
p4201
I3207
sVurahutia
p4202
I2280
sVforest
p4203
I1098
sVgoner
p4204
I1935
sVinstead
p4205
I1960
sVsummeri
p4206
I2852
sVlompoc
p4207
I1550
sVmemoir
p4208
I1721
sVchri
p4209
I3823
sVsweat
p4210
I3938
sVswedish
p4211
I3952
sVfinanc
p4212
I283
sVabbey
p4213
I4423
sVattend
p4214
I183
sVfarm
p4215
I2490
sVwatch
p4216
I518
sVact
p4217
I3579
sVthunderstorm
p4218
I4918
sVdevot
p4219
I3586
sVsip
p4220
I3566
sVupscal
p4221
I1759
sVattent
p4222
I2647
sVtaco
p4223
I3232
sVfab
p4224
I2404
sVstepfath
p4225
I1993
sVcoast
p4226
I3048
sVindustri
p4227
I2541
sVfratern
p4228
I3248
sVrental
p4229
I1742
sVvillag
p4230
I2864
sVbakeri
p4231
I2032
sVdrape
p4232
I2400
sVedibl
p4233
I652
sVnanci
p4234
I1501
sVmilou
p4235
I3774
sVseriou
p4236
I1074
sVhockey
p4237
I4345
sVhawk
p4238
I3978
sVliner
p4239
I3009
sVelement
p4240
I257
sVibiza
p4241
I1803
sVlinen
p4242
I1713
sVperfectly-hu
p4243
I2421
sVencyclopedia
p4244
I1956
sVkaysha
p4245
I3238
sVagenda
p4246
I1188
sVjolin
p4247
I2298
sVcattl
p4248
I4184
sVdelbarr
p4249
I5044
sVwolverin
p4250
I4809
sVcutleri
p4251
I4153
sVfanfar
p4252
I3691
sVmosqu
p4253
I2246
sVpiquett
p4254
I3036
sVmute
p4255
I1860
sVping
p4256
I4480
sVmove
p4257
I384
sVoft-visit
p4258
I3676
sVrae
p4259
I3990
sVultra-cool
p4260
I1449
sVdresses.w
p4261
I2992
sVwhilst
p4262
I3953
sVmojito
p4263
I703
sVjacqui
p4264
I3796
sVdiametr
p4265
I3665
sVhappiest
p4266
I3892
sVbunch
p4267
I3252
sVperfect
p4268
I407
sV1
p4269
I4391
sVblake
p4270
I5007
sVle
p4271
I1145
sVkoloa
p4272
I5032
sVla
p4273
I349
sVchosen
p4274
I1134
sVlo
p4275
I361
sVll
p4276
I572
sVtwo-tier
p4277
I5158
sVlamp
p4278
I4942
sVafter-parti
p4279
I4847
sVlabor
p4280
I1592
sVkindergarten
p4281
I2196
sVnon-tradit
p4282
I1109
sVtyler
p4283
I3801
sVmadra
p4284
I3322
sVbutton
p4285
I3928
sV2014
p4286
I617
sVdecad
p4287
I239
sVholiday
p4288
I962
sV2011
p4289
I1422
sV2010
p4290
I615
sV2013
p4291
I616
sV2012
p4292
I1043
sVdad
p4293
I551
sVrecept
p4294
I106
sVbaguett
p4295
I2391
sVfourth
p4296
I2653
sVnside
p4297
I1292
sVorthodox
p4298
I1814
sVhurrican
p4299
I1855
sVnada
p4300
I1500
sVoveral
p4301
I1295
sVstrateg
p4302
I2101
sVflew
p4303
I949
sVmention
p4304
I698
sVflare
p4305
I2935
sVsnorkel
p4306
I1753
sVkiss
p4307
I1381
sVfront
p4308
I291
sVcombo
p4309
I3346
sVoverboard
p4310
I3881
sVday
p4311
I32
sVnapkin
p4312
I1406
sVminimalist
p4313
I4791
sVstoryboard
p4314
I4150
sVsomewher
p4315
I2263
sVthrill
p4316
I829
sVwalt
p4317
I4385
sVanyth
p4318
I1195
sVedit
p4319
I1847
sVsworn
p4320
I4882
sVradiant
p4321
I1115
sVcheesecak
p4322
I3102
sVfeast
p4323
I2131
sVforewarn
p4324
I2045
sVdisorgan
p4325
I4778
sVpoetri
p4326
I3355
sVfebruari
p4327
I2431
sVoverpow
p4328
I4904
sVpolit
p4329
I3267
sVtruth
p4330
I1515
sVhomag
p4331
I5068
sVph.d.
p4332
I3882
sVfive-year
p4333
I3387
sVtray
p4334
I4558
sVflair
p4335
I2747
sV3,000
p4336
I2667
sVlilac
p4337
I3844
sVbump
p4338
I1376
sVglobe
p4339
I1892
sVchicagoland
p4340
I4622
sV67th
p4341
I2931
sVsandi
p4342
I1746
sVcrest
p4343
I3975
sVconsum
p4344
I5150
sVsupermodel
p4345
I4996
sVthirteen
p4346
I2970
sV70+
p4347
I4067
sVbritta
p4348
I1429
sVour
p4349
I95
sVhuntington
p4350
I2352
sVmorton
p4351
I2845
sVarray
p4352
I1789
sVwhimsi
p4353
I1761
sVspecial
p4354
I122
sVout
p4355
I96
sVmartha
p4356
I4327
sVpicki
p4357
I5002
sVmatt
p4358
I2004
sVrey
p4359
I4994
sVmuggi
p4360
I4135
sVballroom
p4361
I12
sVhawaii
p4362
I1698
sVbag
p4363
I2996
sVinfluenc
p4364
I2925
sVvoula
p4365
I1834
sVcheeseburg
p4366
I3614
sVmere
p4367
I3835
sVcategori
p4368
I3582
sVsecretli
p4369
I3378
sVmate
p4370
I374
sVstuf
p4371
I1472
sVsuitabl
p4372
I3888
sVrel
p4373
I2098
sVinaccess
p4374
I1703
sVbeatl
p4375
I4381
sVrec
p4376
I2560
sVsmog
p4377
I1313
sVcharli
p4378
I4240
sVstun
p4379
I1770
sVdefens
p4380
I2346
sVred
p4381
I720
sVobsess
p4382
I1293
sVafford
p4383
I4077
sVfranc
p4384
I1891
sVshut
p4385
I2025
sVmodel-t
p4386
I3034
sVumbrella
p4387
I3782
sVjessica
p4388
I2597
sVinsid
p4389
I2354
sVlakeshor
p4390
I4714
sVspot
p4391
I1021
sVloyola
p4392
I365
sVpain/irrit
p4393
I2364
sVenraptur
p4394
I1999
sV75-year-old
p4395
I1085
sVgraze
p4396
I4976
sVjill
p4397
I4120
sVque
p4398
I1507
sVyork
p4399
I798
sVdictionari
p4400
I2999
sVreleas
p4401
I1368
sVembarrass
p4402
I939
sVanyhow
p4403
I2757
sVmolli
p4404
I4306
sVafterward
p4405
I3244
sVpromptli
p4406
I717
sVbadgley
p4407
I1089
sVriver
p4408
I1631
sVyard
p4409
I3236
sVdeserv
p4410
I3585
sVcould
p4411
I235
sVsherpa
p4412
I5178
sVflorida
p4413
I3004
sVsinatra
p4414
I4631
sVkeep
p4415
I1380
sVscari
p4416
I1822
sVbirthday
p4417
I1983
sVtoit
p4418
I4294
sVoutsid
p4419
I1895
sVadrian
p4420
I1772
sVscarc
p4421
I2259
sVaustin
p4422
I884
sVorganiz
p4423
I4543
sVsouth
p4424
I461
sVveggi
p4425
I3996
sVsofter
p4426
I5125
sVsew
p4427
I4194
sVexam
p4428
I2993
sVmunster
p4429
I3698
sVbluff
p4430
I3096
sVblown
p4431
I200
sVbouquet
p4432
I1091
sVethnic
p4433
I4739
sVqualiti
p4434
I2256
sVscene
p4435
I2260
sVphiladelphia
p4436
I3063
sVfloral
p4437
I1253
sV15th
p4438
I4499
sVetsy-bought
p4439
I5142
sVowner
p4440
I4178
sVstump
p4441
I2027
sVfri
p4442
I3617
sVscent
p4443
I3886
sVbicycl
p4444
I2505
sVprioriti
p4445
I591
sVsupposedli
p4446
I2270
sVswept
p4447
I3290
sVstrict
p4448
I1829
sVperfectli
p4449
I2112
sVaccent
p4450
I1836
sVmessag
p4451
I976
sV1882
p4452
I3829
sVtheir
p4453
I602
sVstarv
p4454
I2978
sVsadli
p4455
I1005
sVrocheport
p4456
I3127
sVprivaci
p4457
I2660
sVdrool
p4458
I2401
sVlicenc
p4459
I4458
sVaccessori
p4460
I1654
sVfinal
p4461
I282
sVcabin
p4462
I4467
sVlow
p4463
I3353
sVpalpabl
p4464
I2418
sVmalibu
p4465
I2816
sVshell
p4466
I2372
sVstomach
p4467
I1025
sVwalima
p4468
I4924
sV4:30
p4469
I4227
sVmocktail
p4470
I702
sVstartup
p4471
I4123
sVjuli
p4472
I1805
sVgravit
p4473
I2923
sVmegan
p4474
I1107
sVslider
p4475
I1752
sVargon
p4476
I1088
sVaccompani
p4477
I1086
sVvalencia
p4478
I4524
sVtuscan
p4479
I2190
sVessenti
p4480
I1141
sVexactli
p4481
I942
sVherself
p4482
I2730
sVghibli/hayao
p4483
I2460
sVpractic
p4484
I1737
sVmechan
p4485
I2355
sVphotograph
p4486
I587
sVben
p4487
I2104
sVholland
p4488
I4372
sVjoliet
p4489
I4713
sVembodi
p4490
I2983
sVclassi
p4491
I3929
sVbeg
p4492
I2034
sVstructur
p4493
I2589
sVcharact
p4494
I2451
sVsweden
p4495
I4223
sVfirework
p4496
I4516
sVditch
p4497
I4844
sVlight
p4498
I690
sVbare
p4499
I2890
sVindia
p4500
I3672
sVdenni
p4501
I2438
sVundergo
p4502
I2954
sVexhibit
p4503
I3405
sVdeliveri
p4504
I3897
sVsossusvlei
p4505
I4289
sVkiran
p4506
I2237
sVclip
p4507
I3513
sVterribl
p4508
I1536
sVthereaft
p4509
I488
sVpartnership
p4510
I1730
sVclearli
p4511
I2397
sVsurreal
p4512
I4222
sVtender
p4513
I1621
sVintric
p4514
I4999
sVbuy
p4515
I1984
sVatlanta
p4516
I4729
sVimmigr
p4517
I3671
sVhave
p4518
I312
sVreserv
p4519
I1070
sVneed
p4520
I981
sVtangibl
p4521
I2872
sVupdo
p4522
I5106
sVdream-lik
p4523
I5046
sVtidi
p4524
I2144
sVgentli
p4525
I3108
sV70
p4526
I2944
sVtale
p4527
I3019
sVdepict
p4528
I4720
sVsmallest
p4529
I4102
sVsoak
p4530
I1826
sVthrill-seek
p4531
I902
sVrout
p4532
I2512
sVauspici
p4533
I624
sVlili
p4534
I3116
sVcrabcak
p4535
I4955
sVtandoori
p4536
I4756
sVkrista
p4537
I2635
sVmix
p4538
I1149
sVvalencian
p4539
I4525
sVwhich
p4540
I146
sVoutcrop
p4541
I4279
sVkristi
p4542
I3149
sVso
p4543
I118
sVbarn
p4544
I2122
sVsoap
p4545
I3958
sVsingl
p4546
I453
sVmartina
p4547
I4723
sVoutpour
p4548
I1419
sVtextur
p4549
I1328
sV56
p4550
I4213
sVadamson
p4551
I2813
sVallow
p4552
I1659
sVdeploy
p4553
I4055
sVhen
p4554
I4864
sVwho
p4555
I148
sVgalleri
p4556
I562
sVdiscov
p4557
I646
sVmimosa
p4558
I3263
sVlust
p4559
I3945
sVvisa
p4560
I3481
sVeight
p4561
I38
sVrengstorff
p4562
I4447
sVbrother-in-law
p4563
I3682
sVblue-green
p4564
I4592
sVamplifi
p4565
I4229
sVclass
p4566
I764
sVprecoci
p4567
I3948
sV7-year-old
p4568
I5135
sVprove
p4569
I2255
sVmoradi
p4570
I5050
sVneuropsycholog
p4571
I3877
sVrhapi
p4572
I5241
sVwon
p4573
I2666
sVhanford
p4574
I3519
sVurn
p4575
I1337
sVgather
p4576
I56
sVupset
p4577
I1082
sVneutral
p4578
I1920
sVface
p4579
I944
sVdeni
p4580
I2959
sVthird-world
p4581
I2373
sVsnapshot
p4582
I4836
sVmichel
p4583
I1722
sVpastri
p4584
I2419
sVindi
p4585
I334
sVwow
p4586
I1835
sVfact
p4587
I560
sVson
p4588
I3601
sVaffair
p4589
I1787
sVbackyard
p4590
I3663
sVrecess
p4591
I1301
sVhouston
p4592
I4219
sVtext
p4593
I1030
sVindoor
p4594
I2233
sVcrate
p4595
I5116
sVanyway
p4596
I2886
sVbring
p4597
I545
sVstilt
p4598
I4414
sVvacant
p4599
I5209
sVenvisag
p4600
I1800
sVshi
p4601
I2479
sVelvi
p4602
I4738
sVchicken
p4603
I3974
sVlegend..
p4604
I2598
sVtexa
p4605
I2103
sVeas
p4606
I4108
sVleg
p4607
I4555
sVstaff
p4608
I2753
sVo
p4609
I3797
sVfootbal
p4610
I3071
sVha
p4611
I669
sVlocat
p4612
I692
sVperla
p4613
I2621
sVtire
p4614
I3602
sVhadn
p4615
I1059
sVjaw
p4616
I2963
sVflock
p4617
I5117
sVmovi
p4618
I2901
sVjar
p4619
I1709
sVforev
p4620
I950
sVincident
p4621
I3843
sVshould
p4622
I1076
sVjan
p4623
I2731
sVbrighter
p4624
I3759
sVjam
p4625
I678
sVsuppos
p4626
I1978
sVcongratul
p4627
I2697
sVsparkl
p4628
I1119
sVkmetova
p4629
I5235
sVpiano
p4630
I2475
sVlocal
p4631
I1147
sVinvolv
p4632
I1707
sVhope
p4633
I327
sVmelissa
p4634
I3834
sVmeant
p4635
I377
sVcocina
p4636
I3731
sVsued
p4637
I4803
sVstarck
p4638
I3827
sVcontribut
p4639
I4131
sVpull
p4640
I421
sVbeat
p4641
I2742
sVfamiliar
p4642
I277
sVmichigan
p4643
I1918
sVaccel
p4644
I1652
sVpave
p4645
I3552
sVwatercolor
p4646
I5055
sVbeam
p4647
I1610
sVbean
p4648
I1451
sVchance-
p4649
I4366
sVbead
p4650
I3755
sVgarlic
p4651
I3618
sVphotographi
p4652
I588
sVlucki
p4653
I366
sVulepu
p4654
I5042
sVendless
p4655
I2220
sVgray
p4656
I1697
sVasrai
p4657
I2821
sVdamewood
p4658
I2577
sVorgan
p4659
I781
sVcountrysid
p4660
I4356
sVh
p4661
I3466
sVbounc
p4662
I4313
sVstanford
p4663
I1554
sVrapper
p4664
I4333
sVmaria
p4665
I3811
sVgorgou
p4666
I300
sVqc
p4667
I4474
sVstuff
p4668
I469
sVshe
p4669
I449
sVcontain
p4670
I2086
sVohio
p4671
I2335
sVgrab
p4672
I3668
sVattribut
p4673
I2854
sVgrad
p4674
I2328
sVview
p4675
I1636
sVmemphi
p4676
I5183
sVmacaroon
p4677
I5205
sVivy-cov
p4678
I4040
sVpacker
p4679
I3716
sVbenton
p4680
I4365
sVframe
p4681
I1255
sVknowledg
p4682
I1061
sVorphan
p4683
I2362
sVaccord
p4684
I5210
sVapolog
p4685
I2591
sVflorist-
p4686
I4305
sVdalla
p4687
I2089
sVgod-honor
p4688
I5092
sVwoodland
p4689
I757
sVquintan
p4690
I3739
sVnever-worn
p4691
I2472
sVcloser
p4692
I224
sVhead-over-heel
p4693
I3261
sVentranc
p4694
I4936
sVwire
p4695
I3537
sVextend
p4696
I3359
sVlux
p4697
I1460
sVnuclear
p4698
I3525
sVunless
p4699
I4988
sVaway-
p4700
I3342
sVfavor
p4701
I656
sVstate
p4702
I1078
sVcanari
p4703
I3664
sVlug
p4704
I4269
sVlui
p4705
I2615
sVneither
p4706
I2312
sVinclus
p4707
I2540
sVemail
p4708
I3001
sVbought
p4709
I1453
sVmizzou
p4710
I2434
sVethic
p4711
I4700
sVentic
p4712
I4253
sVcinderella
p4713
I3762
sVbed
p4714
I2892
sVmerri
p4715
I1859
sVgrassi
p4716
I5143
sVjoy
p4717
I570
sVsorrow
p4718
I5190
sVavid
p4719
I4311
sVarugula
p4720
I4849
sVcourtyard
p4721
I4036
sVjob
p4722
I341
sVentir
p4723
I842
sVjoe
p4724
I2052
sVkey
p4725
I2002
sVre-creat
p4726
I3949
sVrooftop
p4727
I3377
sVundoubt
p4728
I2721
sVsouvenir
p4729
I3721
sVbraunphotographi
p4730
I2035
sVjon
p4731
I1379
sVaddit
p4732
I832
sVtantrum
p4733
I810
sVgrass
p4734
I4260
sVinstant
p4735
I337
sVlentil
p4736
I4867
sVpepper
p4737
I4603
sVcareer
p4738
I214
sVjoke
p4739
I1175
sVon-look
p4740
I2005
sVaqua
p4741
I1637
sVequal
p4742
I1377
sVcomment
p4743
I1520
sVapril
p4744
I3056
sVadmit
p4745
I2956
sVslovakian
p4746
I5243
sVadmir
p4747
I160
sVuntitl
p4748
I5086
sVhigh-low
p4749
I3112
sVswim
p4750
I1446
sVmuslim
p4751
I4921
sVarticul
p4752
I1660
sVafraid
p4753
I4840
sVjersey
p4754
I2117
sVe
p4755
I3861
sVvenu
p4756
I751
sVbride-to-b
p4757
I2675
sVjim
p4758
I3062
sVco
p4759
I2609
sVunfold
p4760
I3724
sVtoilet
p4761
I5182
sVwall
p4762
I1348
sVflirtat
p4763
I3298
sVca
p4764
I208
sValek
p4765
I4710
sVarriv
p4766
I915
sVcd
p4767
I1132
sVenglish-speak
p4768
I2176
sVcastelluccia
p4769
I4593
sVtaylor
p4770
I2969
sVlaugh
p4771
I773
sVcommenc
p4772
I641
sVrespect
p4773
I3885
sVcologn
p4774
I3584
sVquit
p4775
I1069
sVattende
p4776
I4485
sVnext.then
p4777
I4460
sVslowli
p4778
I1444
sVhakon
p4779
I5028
sVcatherin
p4780
I4183
sVhindu
p4781
I3333
sVsara
p4782
I3201
sVdarrel
p4783
I4017
sVcompos
p4784
I3399
sVtikka
p4785
I4757
sVwilli
p4786
I2943
sVdrank
p4787
I3373
sVbesid
p4788
I3296
sVtreat
p4789
I791
sVelectr
p4790
I1140
sVpoet
p4791
I2880
sVcurtain
p4792
I2896
sVfeather
p4793
I1888
sVimmedi
p4794
I675
sVmini-brown
p4795
I1463
sVfairytal
p4796
I1613
sVbbq
p4797
I3057
sVartisan
p4798
I3998
sVcraftzilla
p4799
I4842
sVnamib
p4800
I4273
sVmike
p4801
I4704
sVparker
p4802
I4001
sVeduc
p4803
I4252
sVtreasur
p4804
I133
sVupcom
p4805
I5160
sVpresenc
p4806
I417
sVkeeli
p4807
I5102
sVmaxwel
p4808
I5213
sVre-us
p4809
I4099
sVmeaningless
p4810
I1382
sVneighbour
p4811
I2287
sVbartend
p4812
I3570
sVcor
p4813
I1953
sVtogeth
p4814
I496
sVpuerto
p4815
I823
sVador
p4816
I1128
sVfurnitur
p4817
I1057
sVbrunch
p4818
I1946
sVnerv
p4819
I1594
sVlord
p4820
I5187
sVpresent
p4821
I102
sVchips-
p4822
I2696
sVerin
p4823
I1688
sVtherefor
p4824
I1901
sVlaser
p4825
I3521
sVcorset
p4826
I3930
sVavant-gard
p4827
I3539
sVplain
p4828
I2904
sVvanilla
p4829
I1339
sVhomey
p4830
I4443
sVharder
p4831
I3168
sVhand-drawn
p4832
I4536
sVaugusta
p4833
I2447
sVwill
p4834
I149
sVdefin
p4835
I5186
sVgucci
p4836
I5067
sVsgro
p4837
I115
sVweber
p4838
I1925
sVantigua
p4839
I3908
sVdude
p4840
I4250
sVwild
p4841
I2640
sVrichi
p4842
I2906
sV2007
p4843
I3065
sVobserv
p4844
I2360
sVwatson
p4845
I4200
sVonelov
p4846
I4407
sVva
p4847
I3890
sVlayer
p4848
I1276
sVpurchas
p4849
I996
sVve
p4850
I609
sVensembl
p4851
I3863
sValmost
p4852
I5
sVjackson-i
p4853
I4742
sVblood
p4854
I2523
sVink
p4855
I5029
sVlush
p4856
I694
sVsite
p4857
I1604
sVfelici
p4858
I3257
sVtu
p4859
I5084
sVmotiv
p4860
I2900
sVvu
p4861
I5127
sVsnuck
p4862
I1182
sVpartner
p4863
I1863
sVsurprisingli
p4864
I1326
sVlow-stress
p4865
I3136
sVportray
p4866
I1897
sVcjk
p4867
I4303
sVuniti
p4868
I1607
sVwelcom
p4869
I145
sVmartini
p4870
I4960
sVparti
p4871
I97
sVbegan
p4872
I919
sVeiffl
p4873
I5141
sVsatisfi
p4874
I4410
sVcross
p4875
I2106
sVeric
p4876
I1433
sVmember
p4877
I4177
sVmatthew
p4878
I375
sVspeaker
p4879
I4632
sVlargest
p4880
I4187
sVinch
p4881
I5101
sVfill
p4882
I769
sVdan
p4883
I2126
sVdifficult
p4884
I1885
sVcompetit
p4885
I5056
sVoblivi
p4886
I2473
sVball
p4887
I3382
sVcolumbia
p4888
I3083
sVraymond
p4889
I3154
sVcinematographi
p4890
I27
sVcollag
p4891
I4016
sVabsorb
p4892
I540
sVdrink
p4893
I253
sVupon
p4894
I1081
sVeffect
p4895
I2175
sVcoffe
p4896
I1952
sVradda
p4897
I4607
sVadirondack
p4898
I2147
sVtribut
p4899
I2572
sVstudent
p4900
I4115
sVbrittani
p4901
I4718
sVcanva
p4902
I1220
sVheather
p4903
I567
sVwhale
p4904
I3195
sVnation
p4905
I3836
sVfiat
p4906
I4596
sVcosmet
p4907
I1680
sVtucker
p4908
I4063
sVceltic
p4909
I1583
sVoff
p4910
I392
sVcenter
p4911
I1479
sVdock
p4912
I647
sVi
p4913
I70
sVafar
p4914
I3380
sVcolour
p4915
I1773
sVnonetheless
p4916
I4025
sVwell
p4917
I610
sVarchimed
p4918
I4769
sVthought
p4919
I493
sVboho
p4920
I1204
sVexampl
p4921
I3329
sVenglish
p4922
I1250
sVjenga
p4923
I2842
sVsibl
p4924
I730
sVusual
p4925
I3371
sVny
p4926
I2672
sVdistanc
p4927
I247
sVnewest
p4928
I3264
sVless
p4929
I971
sVsavannah
p4930
I3390
sVboot
p4931
I2375
sVsister-in-law
p4932
I2262
sVstarbuck
p4933
I3179
sVakron
p4934
I2320
sVclinic
p4935
I223
sVfeminin
p4936
I2777
sVdistant
p4937
I5168
sVsurpass
p4938
I1421
sVday-to-day
p4939
I3184
sVshuttl
p4940
I4288
sVbeachi
p4941
I3139
sVpaul
p4942
I3489
sVlauren
p4943
I2829
sVpapel
p4944
I4984
sVjean
p4945
I4564
sVclipper
p4946
I3246
sVweb
p4947
I1417
sVrapid
p4948
I2422
sVmezcal
p4949
I4869
sVwed
p4950
I144
sVjeff
p4951
I806
sVjare
p4952
I1272
sVlake
p4953
I682
sVketchup
p4954
I3657
sVvail
p4955
I2625
sVadd
p4956
I3482
sVother
p4957
I94
sVnira
p4958
I1291
sVcircular
p4959
I4531
sVvoila
p4960
I2831
sVschedul
p4961
I2661
sVcompet
p4962
I2151
sVfring
p4963
I4974
sVski
p4964
I3458
sVmatch
p4965
I974
sVminnetonka
p4966
I4979
sVcatheirn
p4967
I4594
sVbranch
p4968
I1209
sVfate
p4969
I278
sVflood
p4970
I5199
sVutah
p4971
I2165
sVpiec
p4972
I1965
sV1999
p4973
I3747
sVhaul
p4974
I3670
sVrealiz
p4975
I428
sVfive
p4976
I285
sVknow
p4977
I348
sVknot
p4978
I1778
sVkam
p4979
I4073
sVpress
p4980
I4545
sVfootstool
p4981
I4255
sVheight
p4982
I3867
sVassoci
p4983
I3895
sVheeringa
p4984
I2411
sVburnt-orang
p4985
I4236
sVloss
p4986
I2965
sVlincoln
p4987
I1910
sVcrisp
p4988
I1399
sVlike
p4989
I357
sVlost
p4990
I2059
sVincred
p4991
I890
sVmiami
p4992
I4674
sVsofa
p4993
I1869
sVstevenson
p4994
I5105
sVrisotto
p4995
I4875
sVmother-in-law
p4996
I705
sVirresist
p4997
I3450
sVnecessari
p4998
I1529
sVgamecock
p4999
I4938
sVlose
p5000
I2240
sVinterior
p5001
I4539
sVcandl
p5002
I1218
sVsoft
p5003
I119
sVchico
p5004
I637
sVcandi
p5005
I1582
sVitalian
p5006
I1777
sVeucalyptu
p5007
I4553
sVexceed
p5008
I4169
sVdrop
p5009
I2960
sVhabitat
p5010
I2581
sVthiel
p5011
I1123
sVreassur
p5012
I3124
sVpeloponnes
p5013
I4428
sVphenomena
p5014
I3553
sVstuffi
p5015
I3612
sVhail
p5016
I4321
sVself
p5017
I5039
sVhair
p5018
I1402
sVrave
p5019
I1820
sVsophist
p5020
I2989
sVcontin
p5021
I2215
sVshabbi
p5022
I4827
sVconvey
p5023
I1539
sVsmoothli
p5024
I1825
sVget-togeth
p5025
I3923
sVhome
p5026
I326
sVpeter
p5027
I2733
sVfaculti
p5028
I5230
sVcarlsbad
p5029
I216
sVshrug
p5030
I3130
sVkathryn
p5031
I4472
sVtrust
p5032
I1872
sVleaf
p5033
I687
sVshrub
p5034
I1118
sVlead
p5035
I895
sVoverlay
p5036
I2062
sVavoid
p5037
I2448
sVlean
p5038
I352
sVlangham
p5039
I1438
sVether
p5040
I1567
sVleap
p5041
I896
sVoutgo
p5042
I3089
sVpassion
p5043
I713
sVsettl
p5044
I1010
sVslideshow
p5045
I3178
sVdistinctli
p5046
I4737
sVorganza
p5047
I4794
sVleader
p5048
I3300
sVdonjon
p5049
I4504
sVmassachusett
p5050
I4271
sVhinder
p5051
I2492
sVsweeti
p5052
I3434
sVencourag
p5053
I4418
sVmorston
p5054
I4459
sVtracey
p5055
I3603
sVaccident
p5056
I3360
sVchristiana
p5057
I2503
sVjournal
p5058
I3416
sVsuperdawg
p5059
I2569
sVmyron
p5060
I3336
sVawkwardli
p5061
I4302
sVhost
p5062
I963
sVberries/
p5063
I3343
sValthough
p5064
I1190
sVinstinct
p5065
I568
sVnz
p5066
I4913
sVr
p5067
I4331
sVfree-reign
p5068
I4958
sVvs.
p5069
I4297
sVstage
p5070
I1166
sVabout
p5071
I154
sVphotoshoot
p5072
I2710
sVactual
p5073
I1044
sVjustin
p5074
I2377
sVlinger
p5075
I4599
sVcolumn
p5076
I2649
sVfreedom
p5077
I4649
sVaccentu
p5078
I1653
sVstephenson
p5079
I4347
sVcleans
p5080
I3141
sVfoil
p5081
I4554
sVquartet
p5082
I3644
sVfishman
p5083
I4860
sVfear
p5084
I4071
sVpillow
p5085
I2551
sVtri-tip
p5086
I3994
sVunbreak
p5087
I503
sVswimmingli
p5088
I3722
sVsmartli
p5089
I3531
sVvelveteen
p5090
I4064
sVtome
p5091
I3021
sVbride..
p5092
I3362
sVchili-flak
p5093
I4855
sVowl
p5094
I3987
sVown
p5095
I1067
sVlegitim
p5096
I4656
sVglenn
p5097
I4344
sVurth
p5098
I5111
sVukulel
p5099
I2916
sVwashington
p5100
I1126
sVguard
p5101
I306
sVweather
p5102
I520
sVchamp
p5103
I5138
sVempti
p5104
I3732
sVawhil
p5105
I2945
sVmischka
p5106
I1108
sVausten
p5107
I2834
sVhiiii
p5108
I4701
sVwaterfal
p5109
I4199
sVmeant-to-b
p5110
I2844
sVleed
p5111
I4438
sVmississippi
p5112
I3545
sV1983
p5113
I2340
sVpictur
p5114
I1627
sVtransfer
p5115
I3558
sVmuseum
p5116
I1528
sVsupport
p5117
I1514
sV1988
p5118
I4023
sV1989
p5119
I4925
sVoasi
p5120
I4044
sVdestini
p5121
I4900
sVappl
p5122
I1129
sVslovakia
p5123
I5242
sVinner
p5124
I4712
sVimmers
p5125
I2705
sVbiggest
p5126
I885
sVlivermor
p5127
I3899
sVcourteou
p5128
I4401
sVfunction
p5129
I3249
sVappoint
p5130
I3706
sVnourish
p5131
I709
sVnorth
p5132
I1728
sVnapa
p5133
I3303
sVunexpect
p5134
I905
sVinnoc
p5135
I2686
sVshane
p5136
I2716
sVbrand
p5137
I1931
sValexi
p5138
I4825
sVbut
p5139
I207
sVivori
p5140
I1591
sVhi
p5141
I319
sVdustbowl
p5142
I3215
sVho
p5143
I3146
sVarboretum
p5144
I2833
sVgail
p5145
I292
sVgrate
p5146
I303
sVdidnt
p5147
I4154
sVoverflow
p5148
I2637
sVear
p5149
I1247
sVeat
p5150
I1886
sVbud
p5151
I1214
sVhe
p5152
I64
sVcount
p5153
I2038
sVbaptist
p5154
I4927
sVmade
p5155
I368
sVrefin
p5156
I2785
sVwhether
p5157
I3902
sVwish
p5158
I1041
sVj
p5159
I677
sVflip
p5160
I2407
sVdistract
p5161
I3912
sVfight
p5162
I3367
sVpour
p5163
I2862
sVrecord
p5164
I4751
sVbelow
p5165
I2520
sVbelov
p5166
I2790
sVlimit
p5167
I1280
sVtini
p5168
I2571
sVcello
p5169
I1224
sVmonument
p5170
I3075
sVcake
p5171
I23
sVotherwis
p5172
I3777
sVproblem
p5173
I4002
sVthrew
p5174
I2915
sVwinnetka
p5175
I5058
sVdisplay
p5176
I1431
sVministri
p5177
I3088
sVzebra
p5178
I4951
sVirish
p5179
I1590
sVimmobil
p5180
I4204
sVsycamor
p5181
I2819
sVpin
p5182
I2552
sVburger
p5183
I3212
sVburnett
p5184
I3856
sVdure
p5185
I37
sVbustl
p5186
I2013
sVpie
p5187
I1156
sVbalconi
p5188
I4034
sVtwist
p5189
I135
sVnovemb
p5190
I2313
sVinn
p5191
I3030
sVjessi
p5192
I821
sVjenni
p5193
I3320
sVpartial
p5194
I4835
sVin-between
p5195
I4490
sVrunway
p5196
I5156
sVpit
p5197
I2158
sVhappen
p5198
I308
sVvoi
p5199
I5087
sVprobabl
p5200
I1298
sVdiego
p5201
I1056
sVmutual
p5202
I88
sVtorch
p5203
I4378
sVcontest
p5204
I3165
sVcolumbu
p5205
I3247
sVxscape
p5206
I4990
sVkraft
p5207
I2781
sVguitarist
p5208
I4862
sVoak
p5209
I710
sVdetail
p5210
I243
sV40
p5211
I4076
sVprais
p5212
I4453
sVrestaurant/bar
p5213
I1912
sVbook
p5214
I1130
sVgossip
p5215
I4650
sVfutur
p5216
I55
sVmeteor
p5217
I578
sVvarieti
p5218
I3235
sVer
p5219
I4779
sVgondola
p5220
I4627
sVnelson
p5221
I5184
sVbabyfac
p5222
I4312
sVbarbequ
p5223
I1518
sVheartfelt
p5224
I2109
sVfrancisco
p5225
I663
sVstar
p5226
I463
sVcastl
p5227
I2875
sVmonday
p5228
I978
sVsilk-screen
p5229
I3530
sVjune
p5230
I1104
sVclift
p5231
I3824
sVstay
p5232
I2266
sVlens
p5233
I2495
sVaccomplish
p5234
I2865
sVlog
p5235
I3695
sVkinda
p5236
I2974
sVsandler
p5237
I1597
sVfull-siz
p5238
I3411
sVskirbal
p5239
I3474
sVveil
p5240
I1343
sVdecemb
p5241
I2920
sVbasketbal
p5242
I2630
sVcliff
p5243
I1951
sVghost
p5244
I1695
sVexperienc
p5245
I270
sVphilipp
p5246
I3825
sVsentiment
p5247
I3457
sVclane
p5248
I4822
sVcommunity-ori
p5249
I4130
sVgelato
p5250
I2179
sVbaker
p5251
I625
sVjewel
p5252
I1103
sVeon
p5253
I803
sVrule
p5254
I2562
sVbulleit
p5255
I4771
sVportion
p5256
I3455
sVemerg
p5257
I4935
sVrichardson
p5258
I3199
sVyell
p5259
I812
sVsincer
p5260
I2643
ssS'dfs'
p5261
(dp5262
I0
I1
sI1
I274
sI2
I114
sI3
I33
sI4
I142
sI5
I23
sI6
I44
sI7
I280
sI8
I6
sI9
I153
sI10
I43
sI11
I200
sI12
I9
sI13
I169
sI14
I75
sI15
I5
sI16
I2
sI17
I103
sI18
I1
sI19
I16
sI20
I21
sI21
I1
sI22
I122
sI23
I28
sI24
I37
sI25
I8
sI26
I78
sI27
I2
sI28
I42
sI29
I9
sI30
I1
sI31
I91
sI32
I151
sI33
I14
sI34
I8
sI35
I61
sI36
I49
sI37
I52
sI38
I8
sI39
I19
sI40
I4
sI41
I54
sI42
I34
sI43
I48
sI44
I17
sI45
I12
sI46
I78
sI47
I35
sI48
I11
sI49
I116
sI50
I49
sI51
I221
sI52
I138
sI53
I256
sI54
I53
sI55
I13
sI56
I4
sI57
I25
sI58
I17
sI59
I4
sI60
I95
sI61
I171
sI62
I30
sI63
I1
sI64
I101
sI65
I27
sI66
I22
sI67
I46
sI68
I23
sI69
I4
sI70
I217
sI71
I10
sI72
I269
sI73
I30
sI74
I31
sI75
I72
sI76
I2
sI77
I208
sI78
I7
sI79
I94
sI80
I1
sI81
I167
sI82
I106
sI83
I281
sI84
I6
sI85
I56
sI86
I54
sI87
I31
sI88
I20
sI89
I149
sI90
I264
sI91
I26
sI92
I195
sI93
I15
sI94
I103
sI95
I204
sI96
I84
sI97
I60
sI98
I1
sI99
I35
sI100
I78
sI101
I1
sI102
I9
sI103
I6
sI104
I17
sI105
I18
sI106
I58
sI107
I4
sI108
I17
sI109
I43
sI110
I26
sI111
I18
sI112
I151
sI113
I22
sI114
I54
sI115
I1
sI116
I48
sI117
I20
sI118
I148
sI119
I20
sI120
I2
sI121
I5
sI122
I68
sI123
I45
sI124
I12
sI125
I233
sI126
I280
sI127
I40
sI128
I122
sI129
I22
sI130
I119
sI131
I268
sI132
I26
sI133
I4
sI134
I29
sI135
I8
sI136
I108
sI137
I131
sI138
I4
sI139
I243
sI140
I43
sI141
I5
sI142
I201
sI143
I224
sI144
I233
sI145
I14
sI146
I76
sI147
I29
sI148
I74
sI149
I29
sI150
I99
sI151
I137
sI152
I7
sI153
I15
sI154
I85
sI155
I8
sI156
I25
sI157
I1
sI158
I3
sI159
I19
sI160
I6
sI161
I4
sI162
I16
sI163
I17
sI164
I1
sI165
I1
sI166
I1
sI167
I7
sI168
I23
sI169
I17
sI170
I40
sI171
I123
sI172
I10
sI173
I25
sI174
I3
sI175
I5
sI176
I27
sI177
I7
sI178
I2
sI179
I3
sI180
I4
sI181
I80
sI182
I13
sI183
I15
sI184
I1
sI185
I52
sI186
I1
sI187
I58
sI188
I20
sI189
I19
sI190
I7
sI191
I132
sI192
I51
sI193
I10
sI194
I69
sI195
I22
sI196
I53
sI197
I1
sI198
I11
sI199
I50
sI200
I5
sI201
I3
sI202
I8
sI203
I2
sI204
I6
sI205
I177
sI206
I7
sI207
I150
sI208
I2
sI209
I23
sI210
I35
sI211
I35
sI212
I42
sI213
I13
sI214
I6
sI215
I2
sI216
I2
sI217
I1
sI218
I3
sI219
I57
sI220
I15
sI221
I12
sI222
I7
sI223
I2
sI224
I4
sI225
I9
sI226
I1
sI227
I39
sI228
I42
sI229
I1
sI230
I22
sI231
I13
sI232
I15
sI233
I8
sI234
I7
sI235
I77
sI236
I23
sI237
I66
sI238
I32
sI239
I8
sI240
I55
sI241
I14
sI242
I1
sI243
I52
sI244
I52
sI245
I43
sI246
I39
sI247
I19
sI248
I13
sI249
I11
sI250
I19
sI251
I56
sI252
I32
sI253
I17
sI254
I98
sI255
I1
sI256
I3
sI257
I23
sI258
I57
sI259
I47
sI260
I27
sI261
I2
sI262
I8
sI263
I1
sI264
I62
sI265
I55
sI266
I44
sI267
I4
sI268
I20
sI269
I23
sI270
I6
sI271
I1
sI272
I1
sI273
I6
sI274
I18
sI275
I19
sI276
I115
sI277
I4
sI278
I16
sI279
I42
sI280
I48
sI281
I3
sI282
I35
sI283
I1
sI284
I19
sI285
I15
sI286
I23
sI287
I29
sI288
I7
sI289
I1
sI290
I9
sI291
I17
sI292
I1
sI293
I84
sI294
I1
sI295
I27
sI296
I5
sI297
I4
sI298
I64
sI299
I37
sI300
I1
sI301
I55
sI302
I11
sI303
I9
sI304
I40
sI305
I20
sI306
I2
sI307
I19
sI308
I32
sI309
I26
sI310
I5
sI311
I9
sI312
I164
sI313
I8
sI314
I7
sI315
I33
sI316
I34
sI317
I81
sI318
I1
sI319
I89
sI320
I31
sI321
I54
sI322
I6
sI323
I1
sI324
I15
sI325
I5
sI326
I60
sI327
I19
sI328
I33
sI329
I32
sI330
I13
sI331
I1
sI332
I30
sI333
I6
sI334
I1
sI335
I7
sI336
I12
sI337
I4
sI338
I2
sI339
I126
sI340
I9
sI341
I16
sI342
I2
sI343
I8
sI344
I4
sI345
I4
sI346
I23
sI347
I100
sI348
I45
sI349
I10
sI350
I25
sI351
I51
sI352
I1
sI353
I12
sI354
I1
sI355
I44
sI356
I7
sI357
I84
sI358
I47
sI359
I81
sI360
I1
sI361
I11
sI362
I3
sI363
I53
sI364
I81
sI365
I3
sI366
I11
sI367
I5
sI368
I76
sI369
I1
sI370
I2
sI371
I75
sI372
I49
sI373
I1
sI374
I1
sI375
I2
sI376
I12
sI377
I13
sI378
I32
sI379
I15
sI380
I17
sI381
I48
sI382
I78
sI383
I70
sI384
I50
sI385
I15
sI386
I4
sI387
I48
sI388
I48
sI389
I92
sI390
I13
sI391
I26
sI392
I47
sI393
I37
sI394
I18
sI395
I126
sI396
I63
sI397
I8
sI398
I13
sI399
I10
sI400
I18
sI401
I2
sI402
I71
sI403
I5
sI404
I46
sI405
I4
sI406
I1
sI407
I71
sI408
I59
sI409
I9
sI410
I31
sI411
I20
sI412
I64
sI413
I21
sI414
I6
sI415
I14
sI416
I10
sI417
I1
sI418
I15
sI419
I9
sI420
I49
sI421
I15
sI422
I19
sI423
I6
sI424
I26
sI425
I7
sI426
I4
sI427
I14
sI428
I20
sI429
I53
sI430
I8
sI431
I8
sI432
I1
sI433
I46
sI434
I20
sI435
I27
sI436
I3
sI437
I5
sI438
I1
sI439
I38
sI440
I12
sI441
I16
sI442
I4
sI443
I48
sI444
I16
sI445
I59
sI446
I4
sI447
I11
sI448
I8
sI449
I60
sI450
I6
sI451
I29
sI452
I8
sI453
I13
sI454
I3
sI455
I55
sI456
I7
sI457
I13
sI458
I92
sI459
I20
sI460
I4
sI461
I7
sI462
I8
sI463
I6
sI464
I77
sI465
I25
sI466
I6
sI467
I2
sI468
I1
sI469
I3
sI470
I40
sI471
I10
sI472
I29
sI473
I23
sI474
I26
sI475
I5
sI476
I9
sI477
I94
sI478
I43
sI479
I11
sI480
I28
sI481
I15
sI482
I1
sI483
I2
sI484
I39
sI485
I18
sI486
I88
sI487
I92
sI488
I4
sI489
I116
sI490
I56
sI491
I30
sI492
I1
sI493
I37
sI494
I51
sI495
I18
sI496
I120
sI497
I7
sI498
I39
sI499
I24
sI500
I25
sI501
I22
sI502
I77
sI503
I1
sI504
I4
sI505
I4
sI506
I1
sI507
I30
sI508
I3
sI509
I13
sI510
I70
sI511
I1
sI512
I1
sI513
I13
sI514
I9
sI515
I1
sI516
I23
sI517
I32
sI518
I16
sI519
I58
sI520
I9
sI521
I31
sI522
I16
sI523
I54
sI524
I177
sI525
I8
sI526
I1
sI527
I58
sI528
I123
sI529
I85
sI530
I75
sI531
I5
sI532
I23
sI533
I1
sI534
I222
sI535
I16
sI536
I66
sI537
I7
sI538
I12
sI539
I66
sI540
I1
sI541
I7
sI542
I35
sI543
I11
sI544
I24
sI545
I26
sI546
I15
sI547
I3
sI548
I4
sI549
I15
sI550
I6
sI551
I12
sI552
I37
sI553
I8
sI554
I8
sI555
I42
sI556
I3
sI557
I7
sI558
I1
sI559
I1
sI560
I19
sI561
I26
sI562
I16
sI563
I10
sI564
I8
sI565
I17
sI566
I2
sI567
I2
sI568
I2
sI569
I3
sI570
I18
sI571
I1
sI572
I13
sI573
I1
sI574
I13
sI575
I1
sI576
I4
sI577
I7
sI578
I1
sI579
I4
sI580
I23
sI581
I8
sI582
I35
sI583
I2
sI584
I8
sI585
I26
sI586
I6
sI587
I36
sI588
I42
sI589
I40
sI590
I1
sI591
I3
sI592
I1
sI593
I16
sI594
I1
sI595
I20
sI596
I37
sI597
I14
sI598
I4
sI599
I6
sI600
I52
sI601
I2
sI602
I117
sI603
I1
sI604
I4
sI605
I7
sI606
I28
sI607
I28
sI608
I4
sI609
I26
sI610
I39
sI611
I1
sI612
I8
sI613
I4
sI614
I9
sI615
I8
sI616
I10
sI617
I7
sI618
I11
sI619
I1
sI620
I12
sI621
I66
sI622
I1
sI623
I12
sI624
I2
sI625
I2
sI626
I1
sI627
I7
sI628
I5
sI629
I5
sI630
I19
sI631
I5
sI632
I7
sI633
I1
sI634
I11
sI635
I11
sI636
I2
sI637
I1
sI638
I6
sI639
I11
sI640
I13
sI641
I1
sI642
I1
sI643
I3
sI644
I14
sI645
I4
sI646
I9
sI647
I4
sI648
I13
sI649
I3
sI650
I16
sI651
I4
sI652
I1
sI653
I1
sI654
I7
sI655
I9
sI656
I6
sI657
I50
sI658
I3
sI659
I21
sI660
I47
sI661
I1
sI662
I19
sI663
I17
sI664
I1
sI665
I20
sI666
I2
sI667
I7
sI668
I32
sI669
I40
sI670
I3
sI671
I4
sI672
I1
sI673
I1
sI674
I28
sI675
I25
sI676
I1
sI677
I3
sI678
I1
sI679
I3
sI680
I4
sI681
I1
sI682
I17
sI683
I1
sI684
I10
sI685
I4
sI686
I5
sI687
I4
sI688
I1
sI689
I4
sI690
I29
sI691
I1
sI692
I31
sI693
I6
sI694
I12
sI695
I2
sI696
I79
sI697
I2
sI698
I7
sI699
I6
sI700
I11
sI701
I2
sI702
I1
sI703
I1
sI704
I19
sI705
I3
sI706
I30
sI707
I3
sI708
I27
sI709
I1
sI710
I4
sI711
I8
sI712
I5
sI713
I11
sI714
I1
sI715
I1
sI716
I2
sI717
I2
sI718
I7
sI719
I1
sI720
I8
sI721
I32
sI722
I6
sI723
I7
sI724
I1
sI725
I21
sI726
I41
sI727
I9
sI728
I1
sI729
I15
sI730
I3
sI731
I6
sI732
I15
sI733
I1
sI734
I2
sI735
I32
sI736
I7
sI737
I1
sI738
I1
sI739
I2
sI740
I18
sI741
I1
sI742
I2
sI743
I2
sI744
I24
sI745
I1
sI746
I24
sI747
I13
sI748
I1
sI749
I3
sI750
I2
sI751
I62
sI752
I20
sI753
I2
sI754
I6
sI755
I2
sI756
I7
sI757
I1
sI758
I14
sI759
I8
sI760
I17
sI761
I29
sI762
I12
sI763
I1
sI764
I12
sI765
I27
sI766
I1
sI767
I8
sI768
I1
sI769
I28
sI770
I36
sI771
I29
sI772
I33
sI773
I17
sI774
I7
sI775
I3
sI776
I1
sI777
I1
sI778
I6
sI779
I14
sI780
I1
sI781
I13
sI782
I17
sI783
I2
sI784
I13
sI785
I15
sI786
I1
sI787
I2
sI788
I10
sI789
I2
sI790
I9
sI791
I4
sI792
I3
sI793
I22
sI794
I32
sI795
I1
sI796
I1
sI797
I1
sI798
I16
sI799
I32
sI800
I6
sI801
I1
sI802
I1
sI803
I1
sI804
I2
sI805
I1
sI806
I2
sI807
I11
sI808
I1
sI809
I60
sI810
I1
sI811
I7
sI812
I3
sI813
I4
sI814
I2
sI815
I2
sI816
I63
sI817
I1
sI818
I6
sI819
I20
sI820
I2
sI821
I1
sI822
I14
sI823
I3
sI824
I7
sI825
I10
sI826
I2
sI827
I12
sI828
I2
sI829
I4
sI830
I2
sI831
I6
sI832
I8
sI833
I5
sI834
I56
sI835
I3
sI836
I3
sI837
I7
sI838
I9
sI839
I2
sI840
I6
sI841
I4
sI842
I19
sI843
I8
sI844
I31
sI845
I6
sI846
I3
sI847
I2
sI848
I2
sI849
I2
sI850
I3
sI851
I38
sI852
I2
sI853
I1
sI854
I2
sI855
I3
sI856
I4
sI857
I6
sI858
I6
sI859
I7
sI860
I1
sI861
I1
sI862
I12
sI863
I14
sI864
I4
sI865
I4
sI866
I33
sI867
I2
sI868
I3
sI869
I1
sI870
I9
sI871
I3
sI872
I12
sI873
I1
sI874
I1
sI875
I46
sI876
I9
sI877
I3
sI878
I3
sI879
I1
sI880
I4
sI881
I20
sI882
I4
sI883
I10
sI884
I3
sI885
I4
sI886
I23
sI887
I8
sI888
I5
sI889
I4
sI890
I27
sI891
I2
sI892
I9
sI893
I2
sI894
I11
sI895
I9
sI896
I1
sI897
I14
sI898
I12
sI899
I8
sI900
I11
sI901
I1
sI902
I1
sI903
I51
sI904
I2
sI905
I3
sI906
I18
sI907
I13
sI908
I6
sI909
I9
sI910
I1
sI911
I1
sI912
I9
sI913
I1
sI914
I1
sI915
I18
sI916
I4
sI917
I9
sI918
I23
sI919
I26
sI920
I8
sI921
I1
sI922
I3
sI923
I7
sI924
I7
sI925
I26
sI926
I22
sI927
I7
sI928
I1
sI929
I27
sI930
I5
sI931
I32
sI932
I15
sI933
I27
sI934
I2
sI935
I1
sI936
I3
sI937
I2
sI938
I4
sI939
I2
sI940
I1
sI941
I16
sI942
I16
sI943
I1
sI944
I13
sI945
I4
sI946
I12
sI947
I10
sI948
I34
sI949
I6
sI950
I13
sI951
I3
sI952
I2
sI953
I16
sI954
I1
sI955
I10
sI956
I1
sI957
I1
sI958
I11
sI959
I3
sI960
I1
sI961
I7
sI962
I12
sI963
I7
sI964
I9
sI965
I4
sI966
I13
sI967
I15
sI968
I3
sI969
I20
sI970
I19
sI971
I5
sI972
I18
sI973
I17
sI974
I17
sI975
I9
sI976
I8
sI977
I17
sI978
I1
sI979
I5
sI980
I3
sI981
I23
sI982
I4
sI983
I2
sI984
I10
sI985
I1
sI986
I13
sI987
I4
sI988
I10
sI989
I34
sI990
I2
sI991
I1
sI992
I10
sI993
I1
sI994
I11
sI995
I1
sI996
I6
sI997
I1
sI998
I1
sI999
I3
sI1000
I17
sI1001
I3
sI1002
I3
sI1003
I1
sI1004
I5
sI1005
I1
sI1006
I2
sI1007
I1
sI1008
I1
sI1009
I3
sI1010
I8
sI1011
I1
sI1012
I1
sI1013
I2
sI1014
I2
sI1015
I12
sI1016
I11
sI1017
I1
sI1018
I7
sI1019
I24
sI1020
I21
sI1021
I10
sI1022
I9
sI1023
I1
sI1024
I12
sI1025
I1
sI1026
I9
sI1027
I3
sI1028
I44
sI1029
I21
sI1030
I5
sI1031
I31
sI1032
I4
sI1033
I11
sI1034
I30
sI1035
I1
sI1036
I1
sI1037
I1
sI1038
I7
sI1039
I5
sI1040
I2
sI1041
I13
sI1042
I21
sI1043
I12
sI1044
I18
sI1045
I1
sI1046
I1
sI1047
I1
sI1048
I2
sI1049
I1
sI1050
I1
sI1051
I3
sI1052
I1
sI1053
I4
sI1054
I3
sI1055
I3
sI1056
I4
sI1057
I6
sI1058
I3
sI1059
I5
sI1060
I7
sI1061
I4
sI1062
I9
sI1063
I5
sI1064
I7
sI1065
I1
sI1066
I2
sI1067
I29
sI1068
I2
sI1069
I8
sI1070
I4
sI1071
I13
sI1072
I3
sI1073
I1
sI1074
I3
sI1075
I10
sI1076
I9
sI1077
I6
sI1078
I17
sI1079
I29
sI1080
I13
sI1081
I6
sI1082
I2
sI1083
I4
sI1084
I3
sI1085
I1
sI1086
I7
sI1087
I5
sI1088
I1
sI1089
I2
sI1090
I1
sI1091
I29
sI1092
I5
sI1093
I1
sI1094
I2
sI1095
I2
sI1096
I1
sI1097
I12
sI1098
I6
sI1099
I8
sI1100
I19
sI1101
I1
sI1102
I7
sI1103
I2
sI1104
I5
sI1105
I1
sI1106
I6
sI1107
I3
sI1108
I1
sI1109
I1
sI1110
I3
sI1111
I18
sI1112
I7
sI1113
I8
sI1114
I5
sI1115
I1
sI1116
I42
sI1117
I1
sI1118
I1
sI1119
I5
sI1120
I2
sI1121
I13
sI1122
I12
sI1123
I1
sI1124
I3
sI1125
I17
sI1126
I6
sI1127
I4
sI1128
I16
sI1129
I1
sI1130
I20
sI1131
I1
sI1132
I1
sI1133
I4
sI1134
I6
sI1135
I2
sI1136
I6
sI1137
I4
sI1138
I50
sI1139
I2
sI1140
I3
sI1141
I4
sI1142
I1
sI1143
I6
sI1144
I1
sI1145
I4
sI1146
I18
sI1147
I27
sI1148
I7
sI1149
I12
sI1150
I2
sI1151
I3
sI1152
I6
sI1153
I2
sI1154
I1
sI1155
I16
sI1156
I7
sI1157
I2
sI1158
I7
sI1159
I1
sI1160
I3
sI1161
I6
sI1162
I4
sI1163
I5
sI1164
I1
sI1165
I1
sI1166
I9
sI1167
I5
sI1168
I4
sI1169
I2
sI1170
I15
sI1171
I1
sI1172
I3
sI1173
I1
sI1174
I2
sI1175
I5
sI1176
I13
sI1177
I38
sI1178
I1
sI1179
I9
sI1180
I1
sI1181
I4
sI1182
I3
sI1183
I3
sI1184
I9
sI1185
I2
sI1186
I6
sI1187
I4
sI1188
I2
sI1189
I2
sI1190
I12
sI1191
I2
sI1192
I1
sI1193
I1
sI1194
I8
sI1195
I13
sI1196
I22
sI1197
I2
sI1198
I2
sI1199
I2
sI1200
I7
sI1201
I7
sI1202
I18
sI1203
I4
sI1204
I3
sI1205
I5
sI1206
I1
sI1207
I1
sI1208
I6
sI1209
I4
sI1210
I1
sI1211
I4
sI1212
I1
sI1213
I1
sI1214
I2
sI1215
I1
sI1216
I1
sI1217
I2
sI1218
I17
sI1219
I1
sI1220
I3
sI1221
I3
sI1222
I18
sI1223
I1
sI1224
I1
sI1225
I8
sI1226
I3
sI1227
I4
sI1228
I6
sI1229
I4
sI1230
I10
sI1231
I13
sI1232
I48
sI1233
I1
sI1234
I1
sI1235
I2
sI1236
I4
sI1237
I4
sI1238
I8
sI1239
I4
sI1240
I11
sI1241
I9
sI1242
I1
sI1243
I4
sI1244
I6
sI1245
I2
sI1246
I3
sI1247
I8
sI1248
I5
sI1249
I6
sI1250
I9
sI1251
I10
sI1252
I1
sI1253
I32
sI1254
I2
sI1255
I6
sI1256
I11
sI1257
I4
sI1258
I2
sI1259
I15
sI1260
I2
sI1261
I14
sI1262
I4
sI1263
I3
sI1264
I6
sI1265
I4
sI1266
I19
sI1267
I1
sI1268
I3
sI1269
I23
sI1270
I29
sI1271
I1
sI1272
I1
sI1273
I3
sI1274
I20
sI1275
I5
sI1276
I4
sI1277
I3
sI1278
I1
sI1279
I1
sI1280
I4
sI1281
I2
sI1282
I2
sI1283
I11
sI1284
I6
sI1285
I7
sI1286
I2
sI1287
I2
sI1288
I1
sI1289
I17
sI1290
I6
sI1291
I2
sI1292
I1
sI1293
I4
sI1294
I29
sI1295
I3
sI1296
I7
sI1297
I18
sI1298
I6
sI1299
I3
sI1300
I6
sI1301
I1
sI1302
I8
sI1303
I1
sI1304
I1
sI1305
I12
sI1306
I1
sI1307
I11
sI1308
I20
sI1309
I2
sI1310
I21
sI1311
I3
sI1312
I21
sI1313
I2
sI1314
I1
sI1315
I1
sI1316
I22
sI1317
I5
sI1318
I20
sI1319
I7
sI1320
I1
sI1321
I4
sI1322
I9
sI1323
I10
sI1324
I5
sI1325
I1
sI1326
I3
sI1327
I3
sI1328
I8
sI1329
I4
sI1330
I30
sI1331
I2
sI1332
I1
sI1333
I1
sI1334
I2
sI1335
I7
sI1336
I4
sI1337
I1
sI1338
I38
sI1339
I3
sI1340
I3
sI1341
I9
sI1342
I10
sI1343
I3
sI1344
I4
sI1345
I22
sI1346
I3
sI1347
I2
sI1348
I9
sI1349
I6
sI1350
I5
sI1351
I10
sI1352
I7
sI1353
I3
sI1354
I1
sI1355
I1
sI1356
I29
sI1357
I19
sI1358
I7
sI1359
I1
sI1360
I8
sI1361
I2
sI1362
I2
sI1363
I6
sI1364
I1
sI1365
I6
sI1366
I2
sI1367
I8
sI1368
I1
sI1369
I6
sI1370
I3
sI1371
I10
sI1372
I2
sI1373
I20
sI1374
I1
sI1375
I8
sI1376
I3
sI1377
I7
sI1378
I1
sI1379
I4
sI1380
I26
sI1381
I7
sI1382
I1
sI1383
I4
sI1384
I4
sI1385
I1
sI1386
I6
sI1387
I6
sI1388
I1
sI1389
I10
sI1390
I3
sI1391
I2
sI1392
I2
sI1393
I16
sI1394
I2
sI1395
I1
sI1396
I3
sI1397
I1
sI1398
I5
sI1399
I3
sI1400
I2
sI1401
I2
sI1402
I10
sI1403
I1
sI1404
I3
sI1405
I4
sI1406
I3
sI1407
I13
sI1408
I2
sI1409
I3
sI1410
I7
sI1411
I8
sI1412
I15
sI1413
I5
sI1414
I1
sI1415
I19
sI1416
I3
sI1417
I1
sI1418
I6
sI1419
I1
sI1420
I4
sI1421
I1
sI1422
I9
sI1423
I2
sI1424
I2
sI1425
I1
sI1426
I17
sI1427
I4
sI1428
I8
sI1429
I1
sI1430
I7
sI1431
I8
sI1432
I10
sI1433
I2
sI1434
I5
sI1435
I1
sI1436
I1
sI1437
I1
sI1438
I1
sI1439
I2
sI1440
I3
sI1441
I2
sI1442
I16
sI1443
I1
sI1444
I5
sI1445
I1
sI1446
I5
sI1447
I1
sI1448
I3
sI1449
I1
sI1450
I3
sI1451
I1
sI1452
I8
sI1453
I2
sI1454
I3
sI1455
I6
sI1456
I3
sI1457
I18
sI1458
I1
sI1459
I10
sI1460
I1
sI1461
I1
sI1462
I3
sI1463
I1
sI1464
I1
sI1465
I1
sI1466
I1
sI1467
I13
sI1468
I1
sI1469
I2
sI1470
I1
sI1471
I1
sI1472
I2
sI1473
I2
sI1474
I2
sI1475
I3
sI1476
I4
sI1477
I15
sI1478
I2
sI1479
I12
sI1480
I7
sI1481
I7
sI1482
I1
sI1483
I3
sI1484
I1
sI1485
I1
sI1486
I1
sI1487
I32
sI1488
I9
sI1489
I7
sI1490
I1
sI1491
I1
sI1492
I2
sI1493
I1
sI1494
I2
sI1495
I1
sI1496
I6
sI1497
I2
sI1498
I1
sI1499
I1
sI1500
I1
sI1501
I2
sI1502
I1
sI1503
I1
sI1504
I1
sI1505
I1
sI1506
I1
sI1507
I1
sI1508
I3
sI1509
I1
sI1510
I1
sI1511
I16
sI1512
I12
sI1513
I1
sI1514
I14
sI1515
I1
sI1516
I1
sI1517
I3
sI1518
I1
sI1519
I2
sI1520
I1
sI1521
I2
sI1522
I4
sI1523
I4
sI1524
I5
sI1525
I14
sI1526
I12
sI1527
I7
sI1528
I6
sI1529
I2
sI1530
I1
sI1531
I13
sI1532
I3
sI1533
I16
sI1534
I8
sI1535
I1
sI1536
I2
sI1537
I2
sI1538
I6
sI1539
I2
sI1540
I3
sI1541
I1
sI1542
I1
sI1543
I2
sI1544
I3
sI1545
I2
sI1546
I6
sI1547
I2
sI1548
I3
sI1549
I5
sI1550
I1
sI1551
I1
sI1552
I13
sI1553
I1
sI1554
I1
sI1555
I1
sI1556
I5
sI1557
I2
sI1558
I6
sI1559
I5
sI1560
I10
sI1561
I1
sI1562
I5
sI1563
I2
sI1564
I2
sI1565
I7
sI1566
I5
sI1567
I3
sI1568
I10
sI1569
I4
sI1570
I1
sI1571
I1
sI1572
I2
sI1573
I4
sI1574
I1
sI1575
I2
sI1576
I1
sI1577
I2
sI1578
I5
sI1579
I1
sI1580
I3
sI1581
I2
sI1582
I4
sI1583
I1
sI1584
I2
sI1585
I4
sI1586
I16
sI1587
I1
sI1588
I10
sI1589
I1
sI1590
I3
sI1591
I6
sI1592
I1
sI1593
I9
sI1594
I4
sI1595
I6
sI1596
I1
sI1597
I1
sI1598
I4
sI1599
I1
sI1600
I14
sI1601
I1
sI1602
I2
sI1603
I5
sI1604
I6
sI1605
I4
sI1606
I4
sI1607
I5
sI1608
I5
sI1609
I1
sI1610
I2
sI1611
I3
sI1612
I5
sI1613
I7
sI1614
I4
sI1615
I1
sI1616
I3
sI1617
I7
sI1618
I2
sI1619
I2
sI1620
I3
sI1621
I1
sI1622
I4
sI1623
I1
sI1624
I1
sI1625
I1
sI1626
I2
sI1627
I22
sI1628
I3
sI1629
I8
sI1630
I1
sI1631
I8
sI1632
I1
sI1633
I2
sI1634
I1
sI1635
I5
sI1636
I15
sI1637
I1
sI1638
I8
sI1639
I2
sI1640
I3
sI1641
I1
sI1642
I18
sI1643
I3
sI1644
I1
sI1645
I1
sI1646
I7
sI1647
I5
sI1648
I1
sI1649
I4
sI1650
I2
sI1651
I1
sI1652
I1
sI1653
I2
sI1654
I1
sI1655
I1
sI1656
I3
sI1657
I2
sI1658
I2
sI1659
I6
sI1660
I2
sI1661
I1
sI1662
I3
sI1663
I4
sI1664
I1
sI1665
I1
sI1666
I1
sI1667
I5
sI1668
I10
sI1669
I8
sI1670
I3
sI1671
I2
sI1672
I1
sI1673
I2
sI1674
I2
sI1675
I1
sI1676
I1
sI1677
I11
sI1678
I5
sI1679
I1
sI1680
I1
sI1681
I1
sI1682
I1
sI1683
I20
sI1684
I2
sI1685
I11
sI1686
I1
sI1687
I1
sI1688
I2
sI1689
I2
sI1690
I1
sI1691
I3
sI1692
I1
sI1693
I1
sI1694
I3
sI1695
I1
sI1696
I8
sI1697
I5
sI1698
I5
sI1699
I1
sI1700
I3
sI1701
I2
sI1702
I3
sI1703
I1
sI1704
I3
sI1705
I1
sI1706
I8
sI1707
I6
sI1708
I2
sI1709
I5
sI1710
I2
sI1711
I1
sI1712
I1
sI1713
I8
sI1714
I6
sI1715
I1
sI1716
I8
sI1717
I1
sI1718
I1
sI1719
I3
sI1720
I1
sI1721
I1
sI1722
I3
sI1723
I6
sI1724
I1
sI1725
I4
sI1726
I3
sI1727
I2
sI1728
I3
sI1729
I1
sI1730
I3
sI1731
I1
sI1732
I2
sI1733
I5
sI1734
I1
sI1735
I3
sI1736
I1
sI1737
I5
sI1738
I1
sI1739
I1
sI1740
I1
sI1741
I5
sI1742
I2
sI1743
I8
sI1744
I4
sI1745
I1
sI1746
I2
sI1747
I4
sI1748
I1
sI1749
I11
sI1750
I3
sI1751
I1
sI1752
I1
sI1753
I1
sI1754
I1
sI1755
I1
sI1756
I1
sI1757
I1
sI1758
I1
sI1759
I1
sI1760
I3
sI1761
I2
sI1762
I9
sI1763
I4
sI1764
I2
sI1765
I2
sI1766
I2
sI1767
I5
sI1768
I1
sI1769
I1
sI1770
I18
sI1771
I7
sI1772
I3
sI1773
I2
sI1774
I9
sI1775
I1
sI1776
I4
sI1777
I8
sI1778
I10
sI1779
I3
sI1780
I26
sI1781
I3
sI1782
I2
sI1783
I5
sI1784
I2
sI1785
I6
sI1786
I3
sI1787
I12
sI1788
I8
sI1789
I1
sI1790
I1
sI1791
I1
sI1792
I8
sI1793
I8
sI1794
I5
sI1795
I2
sI1796
I18
sI1797
I2
sI1798
I1
sI1799
I3
sI1800
I1
sI1801
I5
sI1802
I4
sI1803
I2
sI1804
I1
sI1805
I9
sI1806
I1
sI1807
I1
sI1808
I4
sI1809
I5
sI1810
I1
sI1811
I1
sI1812
I1
sI1813
I2
sI1814
I1
sI1815
I1
sI1816
I2
sI1817
I3
sI1818
I2
sI1819
I5
sI1820
I4
sI1821
I1
sI1822
I1
sI1823
I5
sI1824
I1
sI1825
I1
sI1826
I4
sI1827
I4
sI1828
I3
sI1829
I1
sI1830
I3
sI1831
I5
sI1832
I3
sI1833
I1
sI1834
I1
sI1835
I3
sI1836
I14
sI1837
I7
sI1838
I1
sI1839
I3
sI1840
I9
sI1841
I13
sI1842
I3
sI1843
I6
sI1844
I3
sI1845
I1
sI1846
I5
sI1847
I4
sI1848
I2
sI1849
I1
sI1850
I3
sI1851
I2
sI1852
I9
sI1853
I4
sI1854
I4
sI1855
I2
sI1856
I1
sI1857
I4
sI1858
I1
sI1859
I1
sI1860
I2
sI1861
I1
sI1862
I1
sI1863
I3
sI1864
I3
sI1865
I3
sI1866
I2
sI1867
I1
sI1868
I1
sI1869
I1
sI1870
I10
sI1871
I13
sI1872
I7
sI1873
I3
sI1874
I27
sI1875
I4
sI1876
I2
sI1877
I2
sI1878
I1
sI1879
I1
sI1880
I4
sI1881
I16
sI1882
I3
sI1883
I1
sI1884
I1
sI1885
I4
sI1886
I4
sI1887
I4
sI1888
I4
sI1889
I3
sI1890
I6
sI1891
I4
sI1892
I5
sI1893
I7
sI1894
I1
sI1895
I17
sI1896
I1
sI1897
I1
sI1898
I5
sI1899
I4
sI1900
I19
sI1901
I3
sI1902
I9
sI1903
I4
sI1904
I2
sI1905
I5
sI1906
I1
sI1907
I2
sI1908
I2
sI1909
I3
sI1910
I3
sI1911
I2
sI1912
I1
sI1913
I10
sI1914
I1
sI1915
I4
sI1916
I3
sI1917
I2
sI1918
I11
sI1919
I2
sI1920
I4
sI1921
I4
sI1922
I8
sI1923
I4
sI1924
I1
sI1925
I1
sI1926
I8
sI1927
I1
sI1928
I1
sI1929
I1
sI1930
I1
sI1931
I4
sI1932
I1
sI1933
I1
sI1934
I2
sI1935
I1
sI1936
I3
sI1937
I1
sI1938
I1
sI1939
I1
sI1940
I1
sI1941
I1
sI1942
I2
sI1943
I1
sI1944
I3
sI1945
I4
sI1946
I2
sI1947
I2
sI1948
I1
sI1949
I2
sI1950
I1
sI1951
I2
sI1952
I7
sI1953
I5
sI1954
I6
sI1955
I2
sI1956
I1
sI1957
I2
sI1958
I4
sI1959
I3
sI1960
I13
sI1961
I2
sI1962
I6
sI1963
I3
sI1964
I3
sI1965
I13
sI1966
I1
sI1967
I1
sI1968
I1
sI1969
I1
sI1970
I2
sI1971
I8
sI1972
I3
sI1973
I6
sI1974
I11
sI1975
I1
sI1976
I1
sI1977
I2
sI1978
I4
sI1979
I1
sI1980
I4
sI1981
I1
sI1982
I1
sI1983
I5
sI1984
I4
sI1985
I11
sI1986
I2
sI1987
I1
sI1988
I2
sI1989
I3
sI1990
I1
sI1991
I3
sI1992
I5
sI1993
I1
sI1994
I3
sI1995
I3
sI1996
I1
sI1997
I5
sI1998
I1
sI1999
I1
sI2000
I6
sI2001
I4
sI2002
I3
sI2003
I4
sI2004
I8
sI2005
I2
sI2006
I6
sI2007
I1
sI2008
I5
sI2009
I4
sI2010
I1
sI2011
I6
sI2012
I3
sI2013
I3
sI2014
I3
sI2015
I1
sI2016
I1
sI2017
I1
sI2018
I1
sI2019
I3
sI2020
I1
sI2021
I1
sI2022
I3
sI2023
I2
sI2024
I1
sI2025
I3
sI2026
I1
sI2027
I2
sI2028
I15
sI2029
I1
sI2030
I1
sI2031
I1
sI2032
I4
sI2033
I2
sI2034
I1
sI2035
I1
sI2036
I5
sI2037
I1
sI2038
I4
sI2039
I1
sI2040
I1
sI2041
I1
sI2042
I2
sI2043
I8
sI2044
I13
sI2045
I1
sI2046
I1
sI2047
I13
sI2048
I3
sI2049
I1
sI2050
I2
sI2051
I1
sI2052
I4
sI2053
I1
sI2054
I11
sI2055
I2
sI2056
I1
sI2057
I1
sI2058
I6
sI2059
I5
sI2060
I1
sI2061
I2
sI2062
I1
sI2063
I1
sI2064
I2
sI2065
I1
sI2066
I4
sI2067
I1
sI2068
I7
sI2069
I1
sI2070
I4
sI2071
I9
sI2072
I5
sI2073
I5
sI2074
I2
sI2075
I1
sI2076
I5
sI2077
I1
sI2078
I5
sI2079
I1
sI2080
I6
sI2081
I1
sI2082
I1
sI2083
I2
sI2084
I2
sI2085
I8
sI2086
I2
sI2087
I1
sI2088
I1
sI2089
I5
sI2090
I2
sI2091
I1
sI2092
I1
sI2093
I3
sI2094
I2
sI2095
I7
sI2096
I4
sI2097
I1
sI2098
I5
sI2099
I1
sI2100
I1
sI2101
I1
sI2102
I3
sI2103
I5
sI2104
I3
sI2105
I1
sI2106
I10
sI2107
I2
sI2108
I4
sI2109
I5
sI2110
I2
sI2111
I8
sI2112
I20
sI2113
I8
sI2114
I6
sI2115
I8
sI2116
I1
sI2117
I3
sI2118
I2
sI2119
I1
sI2120
I6
sI2121
I1
sI2122
I4
sI2123
I1
sI2124
I4
sI2125
I3
sI2126
I5
sI2127
I1
sI2128
I3
sI2129
I7
sI2130
I3
sI2131
I1
sI2132
I13
sI2133
I3
sI2134
I5
sI2135
I5
sI2136
I13
sI2137
I1
sI2138
I2
sI2139
I1
sI2140
I9
sI2141
I1
sI2142
I1
sI2143
I2
sI2144
I1
sI2145
I2
sI2146
I2
sI2147
I1
sI2148
I3
sI2149
I1
sI2150
I1
sI2151
I2
sI2152
I11
sI2153
I6
sI2154
I2
sI2155
I2
sI2156
I3
sI2157
I1
sI2158
I3
sI2159
I1
sI2160
I1
sI2161
I8
sI2162
I2
sI2163
I8
sI2164
I1
sI2165
I1
sI2166
I5
sI2167
I2
sI2168
I3
sI2169
I1
sI2170
I9
sI2171
I3
sI2172
I2
sI2173
I1
sI2174
I1
sI2175
I4
sI2176
I1
sI2177
I1
sI2178
I1
sI2179
I1
sI2180
I4
sI2181
I3
sI2182
I1
sI2183
I4
sI2184
I1
sI2185
I5
sI2186
I1
sI2187
I5
sI2188
I2
sI2189
I5
sI2190
I2
sI2191
I2
sI2192
I2
sI2193
I1
sI2194
I3
sI2195
I1
sI2196
I1
sI2197
I1
sI2198
I1
sI2199
I1
sI2200
I4
sI2201
I4
sI2202
I1
sI2203
I1
sI2204
I1
sI2205
I3
sI2206
I2
sI2207
I1
sI2208
I1
sI2209
I4
sI2210
I1
sI2211
I2
sI2212
I3
sI2213
I4
sI2214
I1
sI2215
I2
sI2216
I4
sI2217
I2
sI2218
I7
sI2219
I7
sI2220
I3
sI2221
I3
sI2222
I1
sI2223
I4
sI2224
I3
sI2225
I1
sI2226
I1
sI2227
I1
sI2228
I1
sI2229
I1
sI2230
I2
sI2231
I2
sI2232
I4
sI2233
I5
sI2234
I1
sI2235
I2
sI2236
I2
sI2237
I1
sI2238
I1
sI2239
I2
sI2240
I6
sI2241
I3
sI2242
I1
sI2243
I2
sI2244
I1
sI2245
I1
sI2246
I1
sI2247
I1
sI2248
I1
sI2249
I1
sI2250
I1
sI2251
I1
sI2252
I2
sI2253
I9
sI2254
I1
sI2255
I2
sI2256
I3
sI2257
I2
sI2258
I3
sI2259
I1
sI2260
I4
sI2261
I1
sI2262
I3
sI2263
I4
sI2264
I1
sI2265
I1
sI2266
I20
sI2267
I1
sI2268
I1
sI2269
I1
sI2270
I1
sI2271
I1
sI2272
I1
sI2273
I6
sI2274
I3
sI2275
I1
sI2276
I1
sI2277
I6
sI2278
I4
sI2279
I1
sI2280
I1
sI2281
I1
sI2282
I5
sI2283
I1
sI2284
I1
sI2285
I1
sI2286
I1
sI2287
I1
sI2288
I1
sI2289
I1
sI2290
I4
sI2291
I3
sI2292
I3
sI2293
I3
sI2294
I9
sI2295
I9
sI2296
I1
sI2297
I4
sI2298
I1
sI2299
I1
sI2300
I2
sI2301
I1
sI2302
I10
sI2303
I1
sI2304
I1
sI2305
I1
sI2306
I4
sI2307
I4
sI2308
I2
sI2309
I1
sI2310
I1
sI2311
I4
sI2312
I9
sI2313
I2
sI2314
I2
sI2315
I3
sI2316
I2
sI2317
I1
sI2318
I1
sI2319
I1
sI2320
I1
sI2321
I4
sI2322
I2
sI2323
I1
sI2324
I3
sI2325
I2
sI2326
I1
sI2327
I4
sI2328
I4
sI2329
I5
sI2330
I8
sI2331
I2
sI2332
I8
sI2333
I1
sI2334
I2
sI2335
I3
sI2336
I1
sI2337
I2
sI2338
I4
sI2339
I5
sI2340
I1
sI2341
I4
sI2342
I4
sI2343
I6
sI2344
I2
sI2345
I6
sI2346
I1
sI2347
I2
sI2348
I1
sI2349
I6
sI2350
I5
sI2351
I1
sI2352
I2
sI2353
I1
sI2354
I14
sI2355
I1
sI2356
I3
sI2357
I1
sI2358
I1
sI2359
I1
sI2360
I2
sI2361
I1
sI2362
I1
sI2363
I3
sI2364
I1
sI2365
I1
sI2366
I3
sI2367
I2
sI2368
I1
sI2369
I1
sI2370
I3
sI2371
I1
sI2372
I3
sI2373
I1
sI2374
I1
sI2375
I3
sI2376
I3
sI2377
I5
sI2378
I18
sI2379
I5
sI2380
I3
sI2381
I3
sI2382
I1
sI2383
I1
sI2384
I1
sI2385
I2
sI2386
I9
sI2387
I9
sI2388
I1
sI2389
I1
sI2390
I4
sI2391
I1
sI2392
I1
sI2393
I1
sI2394
I9
sI2395
I2
sI2396
I3
sI2397
I2
sI2398
I4
sI2399
I14
sI2400
I4
sI2401
I1
sI2402
I2
sI2403
I3
sI2404
I1
sI2405
I1
sI2406
I1
sI2407
I1
sI2408
I1
sI2409
I2
sI2410
I3
sI2411
I1
sI2412
I1
sI2413
I3
sI2414
I1
sI2415
I2
sI2416
I2
sI2417
I1
sI2418
I1
sI2419
I1
sI2420
I3
sI2421
I1
sI2422
I2
sI2423
I3
sI2424
I4
sI2425
I1
sI2426
I1
sI2427
I1
sI2428
I1
sI2429
I1
sI2430
I5
sI2431
I4
sI2432
I1
sI2433
I11
sI2434
I4
sI2435
I6
sI2436
I4
sI2437
I3
sI2438
I1
sI2439
I3
sI2440
I1
sI2441
I1
sI2442
I9
sI2443
I1
sI2444
I3
sI2445
I2
sI2446
I5
sI2447
I1
sI2448
I1
sI2449
I2
sI2450
I1
sI2451
I2
sI2452
I2
sI2453
I1
sI2454
I1
sI2455
I1
sI2456
I7
sI2457
I2
sI2458
I1
sI2459
I1
sI2460
I1
sI2461
I5
sI2462
I1
sI2463
I1
sI2464
I1
sI2465
I1
sI2466
I1
sI2467
I1
sI2468
I1
sI2469
I8
sI2470
I1
sI2471
I6
sI2472
I1
sI2473
I1
sI2474
I2
sI2475
I2
sI2476
I1
sI2477
I1
sI2478
I1
sI2479
I2
sI2480
I10
sI2481
I3
sI2482
I4
sI2483
I1
sI2484
I1
sI2485
I1
sI2486
I1
sI2487
I10
sI2488
I2
sI2489
I2
sI2490
I9
sI2491
I5
sI2492
I1
sI2493
I5
sI2494
I3
sI2495
I1
sI2496
I1
sI2497
I1
sI2498
I3
sI2499
I3
sI2500
I2
sI2501
I1
sI2502
I1
sI2503
I1
sI2504
I6
sI2505
I1
sI2506
I1
sI2507
I1
sI2508
I1
sI2509
I6
sI2510
I1
sI2511
I3
sI2512
I1
sI2513
I1
sI2514
I4
sI2515
I2
sI2516
I2
sI2517
I2
sI2518
I1
sI2519
I3
sI2520
I3
sI2521
I5
sI2522
I2
sI2523
I1
sI2524
I1
sI2525
I1
sI2526
I2
sI2527
I2
sI2528
I1
sI2529
I2
sI2530
I5
sI2531
I1
sI2532
I1
sI2533
I11
sI2534
I2
sI2535
I2
sI2536
I3
sI2537
I1
sI2538
I2
sI2539
I1
sI2540
I1
sI2541
I5
sI2542
I1
sI2543
I1
sI2544
I2
sI2545
I8
sI2546
I1
sI2547
I4
sI2548
I2
sI2549
I1
sI2550
I11
sI2551
I4
sI2552
I6
sI2553
I2
sI2554
I1
sI2555
I7
sI2556
I1
sI2557
I2
sI2558
I1
sI2559
I1
sI2560
I1
sI2561
I2
sI2562
I3
sI2563
I2
sI2564
I2
sI2565
I1
sI2566
I1
sI2567
I3
sI2568
I1
sI2569
I1
sI2570
I16
sI2571
I6
sI2572
I2
sI2573
I4
sI2574
I8
sI2575
I1
sI2576
I2
sI2577
I1
sI2578
I2
sI2579
I3
sI2580
I1
sI2581
I1
sI2582
I1
sI2583
I1
sI2584
I1
sI2585
I1
sI2586
I1
sI2587
I1
sI2588
I1
sI2589
I5
sI2590
I3
sI2591
I1
sI2592
I1
sI2593
I3
sI2594
I3
sI2595
I5
sI2596
I2
sI2597
I3
sI2598
I1
sI2599
I2
sI2600
I3
sI2601
I1
sI2602
I1
sI2603
I1
sI2604
I1
sI2605
I1
sI2606
I1
sI2607
I2
sI2608
I3
sI2609
I1
sI2610
I3
sI2611
I1
sI2612
I3
sI2613
I3
sI2614
I1
sI2615
I2
sI2616
I4
sI2617
I9
sI2618
I1
sI2619
I2
sI2620
I8
sI2621
I1
sI2622
I2
sI2623
I2
sI2624
I1
sI2625
I1
sI2626
I6
sI2627
I4
sI2628
I4
sI2629
I2
sI2630
I2
sI2631
I5
sI2632
I3
sI2633
I1
sI2634
I1
sI2635
I1
sI2636
I1
sI2637
I4
sI2638
I1
sI2639
I1
sI2640
I4
sI2641
I2
sI2642
I3
sI2643
I3
sI2644
I1
sI2645
I2
sI2646
I7
sI2647
I3
sI2648
I1
sI2649
I1
sI2650
I4
sI2651
I1
sI2652
I2
sI2653
I2
sI2654
I6
sI2655
I1
sI2656
I1
sI2657
I2
sI2658
I6
sI2659
I2
sI2660
I2
sI2661
I2
sI2662
I1
sI2663
I1
sI2664
I7
sI2665
I2
sI2666
I3
sI2667
I1
sI2668
I1
sI2669
I1
sI2670
I1
sI2671
I1
sI2672
I1
sI2673
I1
sI2674
I1
sI2675
I3
sI2676
I1
sI2677
I1
sI2678
I1
sI2679
I4
sI2680
I2
sI2681
I2
sI2682
I2
sI2683
I2
sI2684
I3
sI2685
I1
sI2686
I1
sI2687
I1
sI2688
I4
sI2689
I1
sI2690
I1
sI2691
I4
sI2692
I1
sI2693
I3
sI2694
I2
sI2695
I1
sI2696
I1
sI2697
I2
sI2698
I1
sI2699
I1
sI2700
I1
sI2701
I2
sI2702
I2
sI2703
I3
sI2704
I1
sI2705
I1
sI2706
I1
sI2707
I1
sI2708
I3
sI2709
I1
sI2710
I1
sI2711
I3
sI2712
I2
sI2713
I1
sI2714
I1
sI2715
I1
sI2716
I3
sI2717
I1
sI2718
I1
sI2719
I3
sI2720
I2
sI2721
I1
sI2722
I1
sI2723
I1
sI2724
I1
sI2725
I1
sI2726
I1
sI2727
I1
sI2728
I1
sI2729
I1
sI2730
I2
sI2731
I1
sI2732
I7
sI2733
I3
sI2734
I1
sI2735
I10
sI2736
I4
sI2737
I1
sI2738
I2
sI2739
I2
sI2740
I1
sI2741
I3
sI2742
I2
sI2743
I2
sI2744
I1
sI2745
I1
sI2746
I3
sI2747
I2
sI2748
I4
sI2749
I5
sI2750
I1
sI2751
I1
sI2752
I2
sI2753
I4
sI2754
I4
sI2755
I1
sI2756
I1
sI2757
I1
sI2758
I1
sI2759
I2
sI2760
I1
sI2761
I2
sI2762
I1
sI2763
I1
sI2764
I1
sI2765
I2
sI2766
I2
sI2767
I1
sI2768
I1
sI2769
I1
sI2770
I2
sI2771
I1
sI2772
I1
sI2773
I2
sI2774
I2
sI2775
I1
sI2776
I4
sI2777
I3
sI2778
I6
sI2779
I1
sI2780
I4
sI2781
I1
sI2782
I2
sI2783
I2
sI2784
I1
sI2785
I2
sI2786
I5
sI2787
I1
sI2788
I2
sI2789
I5
sI2790
I3
sI2791
I2
sI2792
I2
sI2793
I2
sI2794
I1
sI2795
I4
sI2796
I7
sI2797
I10
sI2798
I4
sI2799
I1
sI2800
I2
sI2801
I1
sI2802
I1
sI2803
I1
sI2804
I2
sI2805
I3
sI2806
I1
sI2807
I1
sI2808
I1
sI2809
I3
sI2810
I1
sI2811
I1
sI2812
I1
sI2813
I1
sI2814
I2
sI2815
I1
sI2816
I1
sI2817
I1
sI2818
I1
sI2819
I1
sI2820
I3
sI2821
I2
sI2822
I1
sI2823
I9
sI2824
I5
sI2825
I2
sI2826
I2
sI2827
I1
sI2828
I4
sI2829
I8
sI2830
I1
sI2831
I1
sI2832
I4
sI2833
I1
sI2834
I1
sI2835
I5
sI2836
I1
sI2837
I2
sI2838
I1
sI2839
I1
sI2840
I3
sI2841
I7
sI2842
I1
sI2843
I1
sI2844
I1
sI2845
I1
sI2846
I1
sI2847
I1
sI2848
I1
sI2849
I1
sI2850
I1
sI2851
I1
sI2852
I1
sI2853
I1
sI2854
I1
sI2855
I1
sI2856
I1
sI2857
I3
sI2858
I1
sI2859
I1
sI2860
I2
sI2861
I1
sI2862
I2
sI2863
I1
sI2864
I4
sI2865
I1
sI2866
I6
sI2867
I1
sI2868
I1
sI2869
I2
sI2870
I3
sI2871
I3
sI2872
I1
sI2873
I1
sI2874
I1
sI2875
I3
sI2876
I2
sI2877
I2
sI2878
I1
sI2879
I1
sI2880
I1
sI2881
I1
sI2882
I1
sI2883
I2
sI2884
I1
sI2885
I4
sI2886
I1
sI2887
I1
sI2888
I1
sI2889
I2
sI2890
I1
sI2891
I1
sI2892
I3
sI2893
I2
sI2894
I1
sI2895
I8
sI2896
I2
sI2897
I2
sI2898
I1
sI2899
I3
sI2900
I1
sI2901
I6
sI2902
I1
sI2903
I1
sI2904
I2
sI2905
I1
sI2906
I1
sI2907
I2
sI2908
I3
sI2909
I2
sI2910
I1
sI2911
I1
sI2912
I1
sI2913
I1
sI2914
I1
sI2915
I4
sI2916
I1
sI2917
I1
sI2918
I3
sI2919
I2
sI2920
I4
sI2921
I1
sI2922
I5
sI2923
I1
sI2924
I2
sI2925
I2
sI2926
I9
sI2927
I4
sI2928
I1
sI2929
I1
sI2930
I1
sI2931
I1
sI2932
I1
sI2933
I1
sI2934
I2
sI2935
I1
sI2936
I2
sI2937
I4
sI2938
I2
sI2939
I1
sI2940
I2
sI2941
I1
sI2942
I3
sI2943
I2
sI2944
I1
sI2945
I2
sI2946
I1
sI2947
I1
sI2948
I1
sI2949
I1
sI2950
I1
sI2951
I2
sI2952
I1
sI2953
I3
sI2954
I1
sI2955
I4
sI2956
I4
sI2957
I1
sI2958
I1
sI2959
I3
sI2960
I6
sI2961
I2
sI2962
I1
sI2963
I1
sI2964
I3
sI2965
I1
sI2966
I2
sI2967
I2
sI2968
I1
sI2969
I1
sI2970
I1
sI2971
I1
sI2972
I13
sI2973
I2
sI2974
I2
sI2975
I1
sI2976
I2
sI2977
I1
sI2978
I1
sI2979
I1
sI2980
I5
sI2981
I1
sI2982
I2
sI2983
I2
sI2984
I2
sI2985
I1
sI2986
I1
sI2987
I1
sI2988
I1
sI2989
I6
sI2990
I1
sI2991
I5
sI2992
I1
sI2993
I1
sI2994
I2
sI2995
I6
sI2996
I2
sI2997
I2
sI2998
I1
sI2999
I1
sI3000
I1
sI3001
I5
sI3002
I2
sI3003
I2
sI3004
I2
sI3005
I1
sI3006
I1
sI3007
I1
sI3008
I1
sI3009
I1
sI3010
I2
sI3011
I4
sI3012
I2
sI3013
I1
sI3014
I1
sI3015
I4
sI3016
I1
sI3017
I1
sI3018
I1
sI3019
I2
sI3020
I1
sI3021
I1
sI3022
I1
sI3023
I1
sI3024
I2
sI3025
I5
sI3026
I2
sI3027
I2
sI3028
I2
sI3029
I1
sI3030
I1
sI3031
I1
sI3032
I2
sI3033
I1
sI3034
I1
sI3035
I1
sI3036
I1
sI3037
I3
sI3038
I1
sI3039
I1
sI3040
I2
sI3041
I1
sI3042
I1
sI3043
I1
sI3044
I3
sI3045
I1
sI3046
I1
sI3047
I1
sI3048
I6
sI3049
I1
sI3050
I1
sI3051
I1
sI3052
I1
sI3053
I2
sI3054
I1
sI3055
I1
sI3056
I2
sI3057
I4
sI3058
I3
sI3059
I3
sI3060
I6
sI3061
I2
sI3062
I1
sI3063
I1
sI3064
I1
sI3065
I3
sI3066
I1
sI3067
I2
sI3068
I8
sI3069
I1
sI3070
I3
sI3071
I2
sI3072
I1
sI3073
I1
sI3074
I1
sI3075
I1
sI3076
I2
sI3077
I1
sI3078
I1
sI3079
I1
sI3080
I2
sI3081
I1
sI3082
I3
sI3083
I2
sI3084
I1
sI3085
I4
sI3086
I1
sI3087
I1
sI3088
I1
sI3089
I2
sI3090
I2
sI3091
I4
sI3092
I1
sI3093
I1
sI3094
I1
sI3095
I1
sI3096
I1
sI3097
I1
sI3098
I4
sI3099
I2
sI3100
I1
sI3101
I2
sI3102
I1
sI3103
I3
sI3104
I1
sI3105
I1
sI3106
I1
sI3107
I1
sI3108
I1
sI3109
I3
sI3110
I1
sI3111
I5
sI3112
I1
sI3113
I1
sI3114
I1
sI3115
I1
sI3116
I3
sI3117
I1
sI3118
I3
sI3119
I1
sI3120
I1
sI3121
I1
sI3122
I1
sI3123
I1
sI3124
I1
sI3125
I8
sI3126
I1
sI3127
I1
sI3128
I1
sI3129
I1
sI3130
I1
sI3131
I1
sI3132
I3
sI3133
I2
sI3134
I1
sI3135
I1
sI3136
I1
sI3137
I2
sI3138
I3
sI3139
I1
sI3140
I2
sI3141
I1
sI3142
I1
sI3143
I3
sI3144
I1
sI3145
I1
sI3146
I1
sI3147
I1
sI3148
I1
sI3149
I1
sI3150
I4
sI3151
I1
sI3152
I2
sI3153
I1
sI3154
I1
sI3155
I1
sI3156
I2
sI3157
I3
sI3158
I2
sI3159
I1
sI3160
I1
sI3161
I1
sI3162
I4
sI3163
I2
sI3164
I1
sI3165
I1
sI3166
I1
sI3167
I1
sI3168
I1
sI3169
I2
sI3170
I2
sI3171
I2
sI3172
I1
sI3173
I1
sI3174
I1
sI3175
I1
sI3176
I1
sI3177
I2
sI3178
I1
sI3179
I1
sI3180
I1
sI3181
I2
sI3182
I1
sI3183
I3
sI3184
I1
sI3185
I1
sI3186
I4
sI3187
I1
sI3188
I1
sI3189
I2
sI3190
I1
sI3191
I2
sI3192
I3
sI3193
I1
sI3194
I2
sI3195
I1
sI3196
I1
sI3197
I1
sI3198
I1
sI3199
I1
sI3200
I7
sI3201
I1
sI3202
I1
sI3203
I1
sI3204
I2
sI3205
I1
sI3206
I1
sI3207
I4
sI3208
I9
sI3209
I2
sI3210
I1
sI3211
I1
sI3212
I1
sI3213
I5
sI3214
I2
sI3215
I1
sI3216
I3
sI3217
I1
sI3218
I1
sI3219
I1
sI3220
I1
sI3221
I1
sI3222
I4
sI3223
I5
sI3224
I1
sI3225
I1
sI3226
I1
sI3227
I2
sI3228
I1
sI3229
I1
sI3230
I2
sI3231
I3
sI3232
I2
sI3233
I1
sI3234
I2
sI3235
I5
sI3236
I2
sI3237
I3
sI3238
I1
sI3239
I3
sI3240
I1
sI3241
I1
sI3242
I1
sI3243
I3
sI3244
I4
sI3245
I1
sI3246
I1
sI3247
I2
sI3248
I1
sI3249
I1
sI3250
I1
sI3251
I1
sI3252
I1
sI3253
I1
sI3254
I1
sI3255
I1
sI3256
I1
sI3257
I1
sI3258
I1
sI3259
I1
sI3260
I2
sI3261
I1
sI3262
I1
sI3263
I1
sI3264
I1
sI3265
I2
sI3266
I1
sI3267
I2
sI3268
I2
sI3269
I1
sI3270
I1
sI3271
I1
sI3272
I1
sI3273
I1
sI3274
I2
sI3275
I1
sI3276
I1
sI3277
I1
sI3278
I4
sI3279
I3
sI3280
I1
sI3281
I2
sI3282
I1
sI3283
I5
sI3284
I1
sI3285
I1
sI3286
I3
sI3287
I1
sI3288
I1
sI3289
I1
sI3290
I3
sI3291
I1
sI3292
I1
sI3293
I1
sI3294
I1
sI3295
I3
sI3296
I2
sI3297
I5
sI3298
I1
sI3299
I1
sI3300
I1
sI3301
I1
sI3302
I3
sI3303
I4
sI3304
I4
sI3305
I1
sI3306
I2
sI3307
I4
sI3308
I1
sI3309
I2
sI3310
I2
sI3311
I3
sI3312
I1
sI3313
I1
sI3314
I3
sI3315
I1
sI3316
I2
sI3317
I1
sI3318
I1
sI3319
I1
sI3320
I5
sI3321
I1
sI3322
I1
sI3323
I2
sI3324
I1
sI3325
I2
sI3326
I3
sI3327
I2
sI3328
I1
sI3329
I2
sI3330
I1
sI3331
I1
sI3332
I6
sI3333
I2
sI3334
I1
sI3335
I2
sI3336
I1
sI3337
I1
sI3338
I1
sI3339
I2
sI3340
I1
sI3341
I1
sI3342
I1
sI3343
I1
sI3344
I1
sI3345
I1
sI3346
I2
sI3347
I1
sI3348
I1
sI3349
I7
sI3350
I1
sI3351
I2
sI3352
I1
sI3353
I4
sI3354
I1
sI3355
I1
sI3356
I1
sI3357
I1
sI3358
I2
sI3359
I1
sI3360
I1
sI3361
I1
sI3362
I1
sI3363
I1
sI3364
I1
sI3365
I1
sI3366
I1
sI3367
I2
sI3368
I8
sI3369
I1
sI3370
I3
sI3371
I2
sI3372
I1
sI3373
I1
sI3374
I1
sI3375
I2
sI3376
I5
sI3377
I1
sI3378
I4
sI3379
I1
sI3380
I3
sI3381
I2
sI3382
I5
sI3383
I1
sI3384
I2
sI3385
I2
sI3386
I1
sI3387
I1
sI3388
I2
sI3389
I1
sI3390
I1
sI3391
I1
sI3392
I3
sI3393
I1
sI3394
I1
sI3395
I1
sI3396
I1
sI3397
I1
sI3398
I4
sI3399
I2
sI3400
I2
sI3401
I1
sI3402
I3
sI3403
I1
sI3404
I1
sI3405
I1
sI3406
I1
sI3407
I1
sI3408
I1
sI3409
I2
sI3410
I3
sI3411
I1
sI3412
I1
sI3413
I9
sI3414
I1
sI3415
I1
sI3416
I1
sI3417
I1
sI3418
I1
sI3419
I2
sI3420
I1
sI3421
I1
sI3422
I6
sI3423
I1
sI3424
I1
sI3425
I1
sI3426
I1
sI3427
I1
sI3428
I1
sI3429
I2
sI3430
I1
sI3431
I1
sI3432
I1
sI3433
I2
sI3434
I1
sI3435
I4
sI3436
I1
sI3437
I1
sI3438
I2
sI3439
I2
sI3440
I1
sI3441
I1
sI3442
I1
sI3443
I1
sI3444
I3
sI3445
I1
sI3446
I1
sI3447
I2
sI3448
I4
sI3449
I1
sI3450
I1
sI3451
I2
sI3452
I2
sI3453
I1
sI3454
I1
sI3455
I1
sI3456
I1
sI3457
I2
sI3458
I2
sI3459
I1
sI3460
I3
sI3461
I2
sI3462
I4
sI3463
I1
sI3464
I1
sI3465
I3
sI3466
I1
sI3467
I2
sI3468
I1
sI3469
I1
sI3470
I1
sI3471
I3
sI3472
I5
sI3473
I2
sI3474
I1
sI3475
I1
sI3476
I2
sI3477
I1
sI3478
I1
sI3479
I2
sI3480
I1
sI3481
I1
sI3482
I4
sI3483
I2
sI3484
I2
sI3485
I1
sI3486
I1
sI3487
I1
sI3488
I1
sI3489
I6
sI3490
I2
sI3491
I2
sI3492
I2
sI3493
I1
sI3494
I1
sI3495
I1
sI3496
I1
sI3497
I1
sI3498
I1
sI3499
I2
sI3500
I1
sI3501
I4
sI3502
I1
sI3503
I1
sI3504
I1
sI3505
I1
sI3506
I1
sI3507
I1
sI3508
I2
sI3509
I1
sI3510
I1
sI3511
I1
sI3512
I1
sI3513
I1
sI3514
I1
sI3515
I1
sI3516
I1
sI3517
I3
sI3518
I1
sI3519
I1
sI3520
I1
sI3521
I1
sI3522
I2
sI3523
I1
sI3524
I1
sI3525
I1
sI3526
I1
sI3527
I2
sI3528
I2
sI3529
I3
sI3530
I1
sI3531
I1
sI3532
I3
sI3533
I2
sI3534
I1
sI3535
I1
sI3536
I1
sI3537
I1
sI3538
I1
sI3539
I1
sI3540
I2
sI3541
I1
sI3542
I1
sI3543
I2
sI3544
I1
sI3545
I1
sI3546
I1
sI3547
I1
sI3548
I1
sI3549
I1
sI3550
I1
sI3551
I1
sI3552
I1
sI3553
I1
sI3554
I1
sI3555
I1
sI3556
I1
sI3557
I1
sI3558
I1
sI3559
I1
sI3560
I1
sI3561
I1
sI3562
I1
sI3563
I1
sI3564
I1
sI3565
I1
sI3566
I2
sI3567
I1
sI3568
I1
sI3569
I1
sI3570
I1
sI3571
I1
sI3572
I1
sI3573
I3
sI3574
I3
sI3575
I1
sI3576
I1
sI3577
I1
sI3578
I4
sI3579
I4
sI3580
I2
sI3581
I1
sI3582
I1
sI3583
I2
sI3584
I2
sI3585
I2
sI3586
I1
sI3587
I2
sI3588
I1
sI3589
I1
sI3590
I4
sI3591
I1
sI3592
I1
sI3593
I2
sI3594
I3
sI3595
I1
sI3596
I1
sI3597
I1
sI3598
I3
sI3599
I1
sI3600
I1
sI3601
I2
sI3602
I1
sI3603
I1
sI3604
I3
sI3605
I2
sI3606
I1
sI3607
I5
sI3608
I2
sI3609
I5
sI3610
I2
sI3611
I1
sI3612
I1
sI3613
I1
sI3614
I1
sI3615
I2
sI3616
I1
sI3617
I3
sI3618
I1
sI3619
I2
sI3620
I1
sI3621
I1
sI3622
I1
sI3623
I2
sI3624
I1
sI3625
I3
sI3626
I1
sI3627
I1
sI3628
I1
sI3629
I1
sI3630
I2
sI3631
I3
sI3632
I1
sI3633
I1
sI3634
I1
sI3635
I1
sI3636
I1
sI3637
I1
sI3638
I1
sI3639
I1
sI3640
I1
sI3641
I1
sI3642
I1
sI3643
I1
sI3644
I3
sI3645
I2
sI3646
I1
sI3647
I2
sI3648
I1
sI3649
I2
sI3650
I1
sI3651
I1
sI3652
I1
sI3653
I1
sI3654
I1
sI3655
I1
sI3656
I2
sI3657
I1
sI3658
I1
sI3659
I1
sI3660
I1
sI3661
I4
sI3662
I1
sI3663
I4
sI3664
I1
sI3665
I1
sI3666
I1
sI3667
I1
sI3668
I1
sI3669
I1
sI3670
I1
sI3671
I2
sI3672
I2
sI3673
I2
sI3674
I1
sI3675
I1
sI3676
I1
sI3677
I1
sI3678
I1
sI3679
I3
sI3680
I1
sI3681
I1
sI3682
I3
sI3683
I1
sI3684
I1
sI3685
I2
sI3686
I1
sI3687
I2
sI3688
I1
sI3689
I1
sI3690
I1
sI3691
I1
sI3692
I2
sI3693
I1
sI3694
I1
sI3695
I1
sI3696
I1
sI3697
I1
sI3698
I1
sI3699
I1
sI3700
I1
sI3701
I1
sI3702
I2
sI3703
I2
sI3704
I2
sI3705
I1
sI3706
I2
sI3707
I1
sI3708
I1
sI3709
I3
sI3710
I1
sI3711
I1
sI3712
I1
sI3713
I1
sI3714
I1
sI3715
I1
sI3716
I1
sI3717
I2
sI3718
I1
sI3719
I1
sI3720
I1
sI3721
I1
sI3722
I1
sI3723
I1
sI3724
I2
sI3725
I1
sI3726
I1
sI3727
I1
sI3728
I1
sI3729
I2
sI3730
I1
sI3731
I1
sI3732
I1
sI3733
I1
sI3734
I1
sI3735
I1
sI3736
I1
sI3737
I1
sI3738
I1
sI3739
I1
sI3740
I2
sI3741
I2
sI3742
I1
sI3743
I1
sI3744
I2
sI3745
I1
sI3746
I1
sI3747
I1
sI3748
I1
sI3749
I1
sI3750
I1
sI3751
I1
sI3752
I2
sI3753
I2
sI3754
I1
sI3755
I3
sI3756
I1
sI3757
I2
sI3758
I1
sI3759
I1
sI3760
I1
sI3761
I4
sI3762
I2
sI3763
I2
sI3764
I1
sI3765
I3
sI3766
I1
sI3767
I3
sI3768
I2
sI3769
I1
sI3770
I1
sI3771
I1
sI3772
I1
sI3773
I1
sI3774
I1
sI3775
I1
sI3776
I1
sI3777
I1
sI3778
I2
sI3779
I5
sI3780
I3
sI3781
I1
sI3782
I3
sI3783
I2
sI3784
I1
sI3785
I1
sI3786
I1
sI3787
I1
sI3788
I1
sI3789
I1
sI3790
I1
sI3791
I1
sI3792
I1
sI3793
I1
sI3794
I1
sI3795
I2
sI3796
I1
sI3797
I3
sI3798
I1
sI3799
I1
sI3800
I2
sI3801
I1
sI3802
I2
sI3803
I1
sI3804
I1
sI3805
I1
sI3806
I1
sI3807
I1
sI3808
I1
sI3809
I1
sI3810
I2
sI3811
I2
sI3812
I2
sI3813
I2
sI3814
I2
sI3815
I1
sI3816
I1
sI3817
I1
sI3818
I2
sI3819
I1
sI3820
I3
sI3821
I1
sI3822
I1
sI3823
I5
sI3824
I1
sI3825
I1
sI3826
I1
sI3827
I1
sI3828
I1
sI3829
I1
sI3830
I1
sI3831
I1
sI3832
I1
sI3833
I1
sI3834
I1
sI3835
I1
sI3836
I3
sI3837
I2
sI3838
I1
sI3839
I1
sI3840
I1
sI3841
I1
sI3842
I1
sI3843
I1
sI3844
I1
sI3845
I2
sI3846
I1
sI3847
I2
sI3848
I1
sI3849
I1
sI3850
I3
sI3851
I3
sI3852
I1
sI3853
I1
sI3854
I1
sI3855
I2
sI3856
I1
sI3857
I1
sI3858
I1
sI3859
I1
sI3860
I2
sI3861
I1
sI3862
I1
sI3863
I1
sI3864
I1
sI3865
I1
sI3866
I1
sI3867
I1
sI3868
I1
sI3869
I1
sI3870
I2
sI3871
I1
sI3872
I2
sI3873
I1
sI3874
I1
sI3875
I1
sI3876
I1
sI3877
I1
sI3878
I1
sI3879
I1
sI3880
I1
sI3881
I2
sI3882
I1
sI3883
I1
sI3884
I1
sI3885
I6
sI3886
I1
sI3887
I1
sI3888
I1
sI3889
I1
sI3890
I1
sI3891
I2
sI3892
I1
sI3893
I1
sI3894
I1
sI3895
I2
sI3896
I1
sI3897
I1
sI3898
I1
sI3899
I1
sI3900
I1
sI3901
I1
sI3902
I2
sI3903
I2
sI3904
I3
sI3905
I2
sI3906
I1
sI3907
I1
sI3908
I1
sI3909
I1
sI3910
I2
sI3911
I1
sI3912
I1
sI3913
I1
sI3914
I1
sI3915
I1
sI3916
I1
sI3917
I2
sI3918
I2
sI3919
I1
sI3920
I2
sI3921
I1
sI3922
I2
sI3923
I1
sI3924
I3
sI3925
I1
sI3926
I1
sI3927
I2
sI3928
I2
sI3929
I2
sI3930
I1
sI3931
I1
sI3932
I1
sI3933
I1
sI3934
I5
sI3935
I1
sI3936
I3
sI3937
I1
sI3938
I2
sI3939
I1
sI3940
I1
sI3941
I2
sI3942
I1
sI3943
I1
sI3944
I1
sI3945
I2
sI3946
I2
sI3947
I1
sI3948
I1
sI3949
I1
sI3950
I3
sI3951
I1
sI3952
I1
sI3953
I2
sI3954
I1
sI3955
I1
sI3956
I2
sI3957
I1
sI3958
I1
sI3959
I1
sI3960
I1
sI3961
I1
sI3962
I1
sI3963
I1
sI3964
I1
sI3965
I1
sI3966
I1
sI3967
I1
sI3968
I1
sI3969
I1
sI3970
I1
sI3971
I1
sI3972
I1
sI3973
I2
sI3974
I3
sI3975
I1
sI3976
I1
sI3977
I1
sI3978
I1
sI3979
I1
sI3980
I1
sI3981
I1
sI3982
I1
sI3983
I3
sI3984
I1
sI3985
I1
sI3986
I2
sI3987
I1
sI3988
I2
sI3989
I1
sI3990
I1
sI3991
I1
sI3992
I1
sI3993
I1
sI3994
I1
sI3995
I1
sI3996
I1
sI3997
I1
sI3998
I1
sI3999
I1
sI4000
I1
sI4001
I2
sI4002
I2
sI4003
I1
sI4004
I1
sI4005
I1
sI4006
I1
sI4007
I1
sI4008
I1
sI4009
I2
sI4010
I1
sI4011
I2
sI4012
I1
sI4013
I3
sI4014
I1
sI4015
I1
sI4016
I1
sI4017
I1
sI4018
I1
sI4019
I1
sI4020
I1
sI4021
I1
sI4022
I1
sI4023
I1
sI4024
I1
sI4025
I1
sI4026
I1
sI4027
I1
sI4028
I3
sI4029
I1
sI4030
I1
sI4031
I1
sI4032
I1
sI4033
I1
sI4034
I4
sI4035
I1
sI4036
I3
sI4037
I1
sI4038
I2
sI4039
I2
sI4040
I1
sI4041
I1
sI4042
I1
sI4043
I1
sI4044
I1
sI4045
I2
sI4046
I1
sI4047
I1
sI4048
I1
sI4049
I2
sI4050
I1
sI4051
I1
sI4052
I1
sI4053
I1
sI4054
I1
sI4055
I2
sI4056
I1
sI4057
I2
sI4058
I1
sI4059
I1
sI4060
I1
sI4061
I1
sI4062
I1
sI4063
I1
sI4064
I1
sI4065
I1
sI4066
I1
sI4067
I1
sI4068
I1
sI4069
I1
sI4070
I1
sI4071
I2
sI4072
I1
sI4073
I1
sI4074
I2
sI4075
I1
sI4076
I3
sI4077
I1
sI4078
I1
sI4079
I1
sI4080
I1
sI4081
I1
sI4082
I1
sI4083
I1
sI4084
I2
sI4085
I1
sI4086
I1
sI4087
I1
sI4088
I1
sI4089
I1
sI4090
I1
sI4091
I1
sI4092
I1
sI4093
I1
sI4094
I1
sI4095
I1
sI4096
I1
sI4097
I1
sI4098
I1
sI4099
I1
sI4100
I1
sI4101
I2
sI4102
I1
sI4103
I1
sI4104
I1
sI4105
I1
sI4106
I1
sI4107
I2
sI4108
I4
sI4109
I1
sI4110
I2
sI4111
I1
sI4112
I1
sI4113
I1
sI4114
I1
sI4115
I2
sI4116
I1
sI4117
I3
sI4118
I1
sI4119
I1
sI4120
I2
sI4121
I1
sI4122
I2
sI4123
I1
sI4124
I2
sI4125
I1
sI4126
I3
sI4127
I1
sI4128
I1
sI4129
I3
sI4130
I1
sI4131
I1
sI4132
I1
sI4133
I1
sI4134
I1
sI4135
I1
sI4136
I2
sI4137
I1
sI4138
I1
sI4139
I2
sI4140
I1
sI4141
I1
sI4142
I1
sI4143
I1
sI4144
I1
sI4145
I1
sI4146
I1
sI4147
I2
sI4148
I1
sI4149
I1
sI4150
I1
sI4151
I1
sI4152
I1
sI4153
I1
sI4154
I1
sI4155
I1
sI4156
I1
sI4157
I2
sI4158
I1
sI4159
I1
sI4160
I1
sI4161
I1
sI4162
I2
sI4163
I1
sI4164
I1
sI4165
I1
sI4166
I1
sI4167
I1
sI4168
I1
sI4169
I1
sI4170
I1
sI4171
I1
sI4172
I1
sI4173
I1
sI4174
I1
sI4175
I2
sI4176
I2
sI4177
I4
sI4178
I5
sI4179
I1
sI4180
I1
sI4181
I1
sI4182
I3
sI4183
I2
sI4184
I1
sI4185
I1
sI4186
I1
sI4187
I2
sI4188
I1
sI4189
I1
sI4190
I1
sI4191
I1
sI4192
I1
sI4193
I1
sI4194
I4
sI4195
I1
sI4196
I1
sI4197
I1
sI4198
I1
sI4199
I1
sI4200
I1
sI4201
I1
sI4202
I1
sI4203
I1
sI4204
I1
sI4205
I1
sI4206
I1
sI4207
I1
sI4208
I1
sI4209
I3
sI4210
I1
sI4211
I1
sI4212
I1
sI4213
I1
sI4214
I1
sI4215
I5
sI4216
I1
sI4217
I1
sI4218
I2
sI4219
I1
sI4220
I2
sI4221
I1
sI4222
I1
sI4223
I1
sI4224
I1
sI4225
I1
sI4226
I1
sI4227
I1
sI4228
I1
sI4229
I1
sI4230
I1
sI4231
I1
sI4232
I2
sI4233
I1
sI4234
I1
sI4235
I1
sI4236
I1
sI4237
I1
sI4238
I1
sI4239
I2
sI4240
I1
sI4241
I1
sI4242
I1
sI4243
I1
sI4244
I1
sI4245
I2
sI4246
I1
sI4247
I1
sI4248
I1
sI4249
I2
sI4250
I1
sI4251
I2
sI4252
I1
sI4253
I1
sI4254
I1
sI4255
I1
sI4256
I1
sI4257
I1
sI4258
I1
sI4259
I1
sI4260
I2
sI4261
I1
sI4262
I1
sI4263
I1
sI4264
I1
sI4265
I1
sI4266
I1
sI4267
I2
sI4268
I1
sI4269
I1
sI4270
I1
sI4271
I1
sI4272
I2
sI4273
I1
sI4274
I1
sI4275
I1
sI4276
I1
sI4277
I1
sI4278
I3
sI4279
I1
sI4280
I1
sI4281
I1
sI4282
I2
sI4283
I3
sI4284
I1
sI4285
I1
sI4286
I1
sI4287
I3
sI4288
I1
sI4289
I1
sI4290
I1
sI4291
I1
sI4292
I1
sI4293
I1
sI4294
I1
sI4295
I1
sI4296
I1
sI4297
I1
sI4298
I1
sI4299
I1
sI4300
I1
sI4301
I1
sI4302
I1
sI4303
I1
sI4304
I1
sI4305
I1
sI4306
I1
sI4307
I1
sI4308
I1
sI4309
I1
sI4310
I1
sI4311
I1
sI4312
I1
sI4313
I1
sI4314
I1
sI4315
I1
sI4316
I1
sI4317
I1
sI4318
I1
sI4319
I2
sI4320
I1
sI4321
I2
sI4322
I1
sI4323
I1
sI4324
I1
sI4325
I2
sI4326
I1
sI4327
I2
sI4328
I1
sI4329
I2
sI4330
I1
sI4331
I1
sI4332
I2
sI4333
I1
sI4334
I1
sI4335
I1
sI4336
I2
sI4337
I2
sI4338
I2
sI4339
I1
sI4340
I1
sI4341
I1
sI4342
I1
sI4343
I1
sI4344
I1
sI4345
I2
sI4346
I1
sI4347
I1
sI4348
I1
sI4349
I1
sI4350
I1
sI4351
I1
sI4352
I1
sI4353
I1
sI4354
I4
sI4355
I1
sI4356
I1
sI4357
I1
sI4358
I2
sI4359
I4
sI4360
I1
sI4361
I1
sI4362
I1
sI4363
I2
sI4364
I1
sI4365
I1
sI4366
I1
sI4367
I1
sI4368
I2
sI4369
I1
sI4370
I1
sI4371
I1
sI4372
I1
sI4373
I1
sI4374
I1
sI4375
I1
sI4376
I3
sI4377
I1
sI4378
I1
sI4379
I1
sI4380
I2
sI4381
I3
sI4382
I1
sI4383
I1
sI4384
I4
sI4385
I1
sI4386
I1
sI4387
I1
sI4388
I1
sI4389
I1
sI4390
I1
sI4391
I2
sI4392
I1
sI4393
I1
sI4394
I1
sI4395
I1
sI4396
I1
sI4397
I1
sI4398
I1
sI4399
I1
sI4400
I1
sI4401
I1
sI4402
I1
sI4403
I2
sI4404
I1
sI4405
I1
sI4406
I1
sI4407
I1
sI4408
I2
sI4409
I1
sI4410
I1
sI4411
I1
sI4412
I1
sI4413
I1
sI4414
I1
sI4415
I1
sI4416
I1
sI4417
I1
sI4418
I1
sI4419
I1
sI4420
I1
sI4421
I1
sI4422
I1
sI4423
I1
sI4424
I1
sI4425
I1
sI4426
I1
sI4427
I1
sI4428
I1
sI4429
I3
sI4430
I4
sI4431
I1
sI4432
I1
sI4433
I1
sI4434
I1
sI4435
I1
sI4436
I1
sI4437
I1
sI4438
I1
sI4439
I1
sI4440
I1
sI4441
I1
sI4442
I1
sI4443
I1
sI4444
I2
sI4445
I1
sI4446
I1
sI4447
I1
sI4448
I1
sI4449
I1
sI4450
I1
sI4451
I1
sI4452
I1
sI4453
I1
sI4454
I2
sI4455
I1
sI4456
I1
sI4457
I1
sI4458
I1
sI4459
I1
sI4460
I1
sI4461
I1
sI4462
I1
sI4463
I1
sI4464
I1
sI4465
I2
sI4466
I1
sI4467
I2
sI4468
I1
sI4469
I1
sI4470
I1
sI4471
I1
sI4472
I1
sI4473
I1
sI4474
I1
sI4475
I1
sI4476
I1
sI4477
I1
sI4478
I1
sI4479
I1
sI4480
I1
sI4481
I1
sI4482
I1
sI4483
I1
sI4484
I1
sI4485
I2
sI4486
I1
sI4487
I1
sI4488
I1
sI4489
I1
sI4490
I1
sI4491
I1
sI4492
I1
sI4493
I1
sI4494
I2
sI4495
I1
sI4496
I1
sI4497
I1
sI4498
I1
sI4499
I1
sI4500
I1
sI4501
I1
sI4502
I1
sI4503
I1
sI4504
I1
sI4505
I1
sI4506
I1
sI4507
I1
sI4508
I1
sI4509
I1
sI4510
I1
sI4511
I1
sI4512
I1
sI4513
I1
sI4514
I1
sI4515
I1
sI4516
I1
sI4517
I1
sI4518
I1
sI4519
I1
sI4520
I1
sI4521
I1
sI4522
I1
sI4523
I1
sI4524
I1
sI4525
I1
sI4526
I1
sI4527
I3
sI4528
I1
sI4529
I1
sI4530
I1
sI4531
I1
sI4532
I1
sI4533
I1
sI4534
I1
sI4535
I1
sI4536
I1
sI4537
I1
sI4538
I1
sI4539
I2
sI4540
I1
sI4541
I1
sI4542
I2
sI4543
I1
sI4544
I1
sI4545
I1
sI4546
I1
sI4547
I1
sI4548
I1
sI4549
I2
sI4550
I2
sI4551
I1
sI4552
I1
sI4553
I1
sI4554
I1
sI4555
I2
sI4556
I1
sI4557
I1
sI4558
I1
sI4559
I1
sI4560
I1
sI4561
I1
sI4562
I2
sI4563
I1
sI4564
I1
sI4565
I2
sI4566
I1
sI4567
I1
sI4568
I1
sI4569
I1
sI4570
I2
sI4571
I1
sI4572
I1
sI4573
I1
sI4574
I2
sI4575
I1
sI4576
I1
sI4577
I1
sI4578
I1
sI4579
I1
sI4580
I1
sI4581
I1
sI4582
I1
sI4583
I1
sI4584
I1
sI4585
I1
sI4586
I1
sI4587
I1
sI4588
I1
sI4589
I1
sI4590
I1
sI4591
I1
sI4592
I1
sI4593
I1
sI4594
I1
sI4595
I1
sI4596
I1
sI4597
I1
sI4598
I1
sI4599
I1
sI4600
I1
sI4601
I1
sI4602
I1
sI4603
I1
sI4604
I2
sI4605
I1
sI4606
I2
sI4607
I1
sI4608
I1
sI4609
I1
sI4610
I1
sI4611
I1
sI4612
I1
sI4613
I2
sI4614
I1
sI4615
I1
sI4616
I1
sI4617
I1
sI4618
I1
sI4619
I1
sI4620
I1
sI4621
I1
sI4622
I1
sI4623
I1
sI4624
I1
sI4625
I2
sI4626
I2
sI4627
I1
sI4628
I1
sI4629
I1
sI4630
I1
sI4631
I1
sI4632
I1
sI4633
I2
sI4634
I1
sI4635
I1
sI4636
I1
sI4637
I1
sI4638
I1
sI4639
I1
sI4640
I1
sI4641
I1
sI4642
I1
sI4643
I1
sI4644
I1
sI4645
I1
sI4646
I1
sI4647
I1
sI4648
I1
sI4649
I1
sI4650
I1
sI4651
I1
sI4652
I1
sI4653
I1
sI4654
I1
sI4655
I1
sI4656
I1
sI4657
I2
sI4658
I2
sI4659
I1
sI4660
I1
sI4661
I1
sI4662
I1
sI4663
I1
sI4664
I1
sI4665
I1
sI4666
I1
sI4667
I1
sI4668
I1
sI4669
I1
sI4670
I2
sI4671
I1
sI4672
I2
sI4673
I1
sI4674
I1
sI4675
I1
sI4676
I1
sI4677
I1
sI4678
I2
sI4679
I1
sI4680
I1
sI4681
I1
sI4682
I1
sI4683
I1
sI4684
I1
sI4685
I1
sI4686
I1
sI4687
I1
sI4688
I1
sI4689
I1
sI4690
I1
sI4691
I1
sI4692
I1
sI4693
I1
sI4694
I1
sI4695
I1
sI4696
I2
sI4697
I1
sI4698
I1
sI4699
I1
sI4700
I1
sI4701
I1
sI4702
I1
sI4703
I1
sI4704
I1
sI4705
I1
sI4706
I3
sI4707
I1
sI4708
I1
sI4709
I1
sI4710
I1
sI4711
I1
sI4712
I1
sI4713
I1
sI4714
I1
sI4715
I1
sI4716
I1
sI4717
I1
sI4718
I2
sI4719
I1
sI4720
I1
sI4721
I1
sI4722
I1
sI4723
I2
sI4724
I1
sI4725
I1
sI4726
I1
sI4727
I1
sI4728
I1
sI4729
I1
sI4730
I1
sI4731
I1
sI4732
I1
sI4733
I1
sI4734
I1
sI4735
I1
sI4736
I1
sI4737
I1
sI4738
I1
sI4739
I1
sI4740
I1
sI4741
I1
sI4742
I1
sI4743
I1
sI4744
I1
sI4745
I1
sI4746
I1
sI4747
I1
sI4748
I1
sI4749
I1
sI4750
I1
sI4751
I1
sI4752
I1
sI4753
I1
sI4754
I1
sI4755
I2
sI4756
I1
sI4757
I1
sI4758
I1
sI4759
I1
sI4760
I1
sI4761
I1
sI4762
I1
sI4763
I1
sI4764
I2
sI4765
I1
sI4766
I1
sI4767
I1
sI4768
I1
sI4769
I1
sI4770
I3
sI4771
I1
sI4772
I1
sI4773
I1
sI4774
I1
sI4775
I1
sI4776
I1
sI4777
I1
sI4778
I1
sI4779
I1
sI4780
I2
sI4781
I2
sI4782
I1
sI4783
I1
sI4784
I1
sI4785
I1
sI4786
I1
sI4787
I1
sI4788
I1
sI4789
I1
sI4790
I1
sI4791
I1
sI4792
I1
sI4793
I1
sI4794
I1
sI4795
I1
sI4796
I1
sI4797
I1
sI4798
I1
sI4799
I1
sI4800
I1
sI4801
I1
sI4802
I1
sI4803
I1
sI4804
I2
sI4805
I1
sI4806
I1
sI4807
I1
sI4808
I1
sI4809
I1
sI4810
I1
sI4811
I1
sI4812
I1
sI4813
I1
sI4814
I1
sI4815
I1
sI4816
I1
sI4817
I1
sI4818
I1
sI4819
I1
sI4820
I2
sI4821
I2
sI4822
I1
sI4823
I1
sI4824
I1
sI4825
I1
sI4826
I1
sI4827
I1
sI4828
I1
sI4829
I1
sI4830
I1
sI4831
I1
sI4832
I2
sI4833
I1
sI4834
I1
sI4835
I1
sI4836
I1
sI4837
I1
sI4838
I1
sI4839
I1
sI4840
I1
sI4841
I1
sI4842
I1
sI4843
I1
sI4844
I1
sI4845
I1
sI4846
I1
sI4847
I1
sI4848
I1
sI4849
I1
sI4850
I1
sI4851
I1
sI4852
I1
sI4853
I1
sI4854
I1
sI4855
I1
sI4856
I1
sI4857
I1
sI4858
I1
sI4859
I1
sI4860
I1
sI4861
I1
sI4862
I1
sI4863
I1
sI4864
I1
sI4865
I1
sI4866
I2
sI4867
I1
sI4868
I1
sI4869
I1
sI4870
I2
sI4871
I1
sI4872
I1
sI4873
I1
sI4874
I1
sI4875
I1
sI4876
I1
sI4877
I1
sI4878
I1
sI4879
I1
sI4880
I1
sI4881
I1
sI4882
I1
sI4883
I1
sI4884
I1
sI4885
I1
sI4886
I1
sI4887
I1
sI4888
I1
sI4889
I1
sI4890
I1
sI4891
I1
sI4892
I1
sI4893
I1
sI4894
I1
sI4895
I1
sI4896
I1
sI4897
I1
sI4898
I1
sI4899
I1
sI4900
I1
sI4901
I1
sI4902
I1
sI4903
I1
sI4904
I1
sI4905
I2
sI4906
I1
sI4907
I1
sI4908
I1
sI4909
I1
sI4910
I1
sI4911
I1
sI4912
I1
sI4913
I1
sI4914
I1
sI4915
I1
sI4916
I1
sI4917
I1
sI4918
I1
sI4919
I1
sI4920
I1
sI4921
I1
sI4922
I1
sI4923
I1
sI4924
I1
sI4925
I1
sI4926
I1
sI4927
I1
sI4928
I1
sI4929
I1
sI4930
I1
sI4931
I1
sI4932
I1
sI4933
I1
sI4934
I2
sI4935
I1
sI4936
I2
sI4937
I1
sI4938
I1
sI4939
I1
sI4940
I1
sI4941
I1
sI4942
I1
sI4943
I1
sI4944
I1
sI4945
I1
sI4946
I1
sI4947
I1
sI4948
I1
sI4949
I1
sI4950
I1
sI4951
I1
sI4952
I1
sI4953
I1
sI4954
I1
sI4955
I1
sI4956
I1
sI4957
I1
sI4958
I1
sI4959
I1
sI4960
I1
sI4961
I1
sI4962
I1
sI4963
I1
sI4964
I1
sI4965
I1
sI4966
I1
sI4967
I1
sI4968
I1
sI4969
I1
sI4970
I2
sI4971
I1
sI4972
I1
sI4973
I1
sI4974
I1
sI4975
I1
sI4976
I1
sI4977
I1
sI4978
I1
sI4979
I1
sI4980
I1
sI4981
I1
sI4982
I1
sI4983
I1
sI4984
I1
sI4985
I1
sI4986
I1
sI4987
I1
sI4988
I1
sI4989
I2
sI4990
I1
sI4991
I1
sI4992
I1
sI4993
I1
sI4994
I1
sI4995
I1
sI4996
I1
sI4997
I1
sI4998
I1
sI4999
I1
sI5000
I1
sI5001
I1
sI5002
I1
sI5003
I1
sI5004
I1
sI5005
I1
sI5006
I1
sI5007
I1
sI5008
I1
sI5009
I1
sI5010
I1
sI5011
I1
sI5012
I1
sI5013
I1
sI5014
I1
sI5015
I1
sI5016
I1
sI5017
I1
sI5018
I1
sI5019
I1
sI5020
I1
sI5021
I1
sI5022
I1
sI5023
I1
sI5024
I1
sI5025
I1
sI5026
I1
sI5027
I1
sI5028
I1
sI5029
I1
sI5030
I1
sI5031
I1
sI5032
I1
sI5033
I1
sI5034
I1
sI5035
I1
sI5036
I1
sI5037
I1
sI5038
I1
sI5039
I1
sI5040
I1
sI5041
I1
sI5042
I1
sI5043
I1
sI5044
I1
sI5045
I2
sI5046
I1
sI5047
I1
sI5048
I1
sI5049
I1
sI5050
I1
sI5051
I1
sI5052
I1
sI5053
I1
sI5054
I1
sI5055
I1
sI5056
I1
sI5057
I1
sI5058
I1
sI5059
I1
sI5060
I1
sI5061
I1
sI5062
I1
sI5063
I1
sI5064
I1
sI5065
I1
sI5066
I1
sI5067
I1
sI5068
I1
sI5069
I1
sI5070
I1
sI5071
I1
sI5072
I1
sI5073
I1
sI5074
I1
sI5075
I1
sI5076
I1
sI5077
I1
sI5078
I1
sI5079
I1
sI5080
I1
sI5081
I1
sI5082
I1
sI5083
I1
sI5084
I1
sI5085
I1
sI5086
I1
sI5087
I1
sI5088
I1
sI5089
I1
sI5090
I1
sI5091
I1
sI5092
I1
sI5093
I1
sI5094
I1
sI5095
I1
sI5096
I1
sI5097
I1
sI5098
I1
sI5099
I1
sI5100
I1
sI5101
I1
sI5102
I1
sI5103
I1
sI5104
I1
sI5105
I1
sI5106
I1
sI5107
I1
sI5108
I1
sI5109
I1
sI5110
I1
sI5111
I1
sI5112
I1
sI5113
I1
sI5114
I1
sI5115
I1
sI5116
I1
sI5117
I1
sI5118
I1
sI5119
I1
sI5120
I1
sI5121
I1
sI5122
I1
sI5123
I1
sI5124
I1
sI5125
I1
sI5126
I1
sI5127
I1
sI5128
I1
sI5129
I1
sI5130
I2
sI5131
I1
sI5132
I1
sI5133
I1
sI5134
I1
sI5135
I1
sI5136
I1
sI5137
I1
sI5138
I1
sI5139
I1
sI5140
I1
sI5141
I1
sI5142
I1
sI5143
I1
sI5144
I1
sI5145
I1
sI5146
I1
sI5147
I1
sI5148
I1
sI5149
I1
sI5150
I1
sI5151
I1
sI5152
I1
sI5153
I1
sI5154
I1
sI5155
I1
sI5156
I1
sI5157
I1
sI5158
I1
sI5159
I1
sI5160
I1
sI5161
I1
sI5162
I1
sI5163
I1
sI5164
I1
sI5165
I1
sI5166
I1
sI5167
I1
sI5168
I1
sI5169
I1
sI5170
I1
sI5171
I1
sI5172
I1
sI5173
I1
sI5174
I1
sI5175
I1
sI5176
I1
sI5177
I1
sI5178
I1
sI5179
I1
sI5180
I1
sI5181
I1
sI5182
I1
sI5183
I1
sI5184
I1
sI5185
I1
sI5186
I1
sI5187
I1
sI5188
I1
sI5189
I1
sI5190
I1
sI5191
I1
sI5192
I1
sI5193
I1
sI5194
I1
sI5195
I1
sI5196
I1
sI5197
I1
sI5198
I1
sI5199
I1
sI5200
I1
sI5201
I1
sI5202
I1
sI5203
I1
sI5204
I1
sI5205
I1
sI5206
I1
sI5207
I1
sI5208
I1
sI5209
I1
sI5210
I1
sI5211
I1
sI5212
I1
sI5213
I1
sI5214
I1
sI5215
I1
sI5216
I1
sI5217
I1
sI5218
I1
sI5219
I1
sI5220
I1
sI5221
I1
sI5222
I1
sI5223
I1
sI5224
I1
sI5225
I1
sI5226
I1
sI5227
I1
sI5228
I1
sI5229
I1
sI5230
I1
sI5231
I1
sI5232
I1
sI5233
I1
sI5234
I1
sI5235
I1
sI5236
I1
sI5237
I1
sI5238
I1
sI5239
I1
sI5240
I1
sI5241
I1
sI5242
I1
sI5243
I1
sI5244
I1
sI5245
I1
sI5246
I1
sI5247
I1
sI5248
I1
sI5249
I1
sI5250
I1
sI5251
I1
ssS'num_nnz'
p5263
I36700
sS'id2token'
p5264
(dp5265
sS'num_pos'
p5266
I67032
sb.